(dp0
S'3.A.12.1.2'
p1
(lp2
S'P46889'
p3
aS'Macromolecules'
p4
aS'Nucleic acids'
p5
aS'DNA'
p6
aS'9160'
p7
aS'Known\n'
p8
asS'2.A.78.1.3'
p9
(lp10
S'P43667'
p11
aS'Organic'
p12
aS'Amino acids and derivatives'
p13
aS'Methionine'
p14
aS'16811'
p15
aS'Known'
p16
aS'Y\n'
p17
asS'5.A.3.4.3'
p18
(lp19
S'P20099'
p20
aS'Inorganic'
p21
aS'Electrons'
p22
aS'Electrons'
p23
aS'10545'
p24
aS'Known\n'
p25
asS'2.A.46.1.1'
p26
(lp27
S'P07775'
p28
aS'Organic'
p29
aS'Carboxylates'
p30
aS'Benzoate'
p31
aS'16150'
p32
aS'Known'
p33
aS'Y\n'
p34
asS'4.A.7.1.1'
p35
(lp36
S'P69820'
p37
aS'Organic'
p38
aS'Carboxylates'
p39
aS'Ascorbate'
p40
aS'22651'
p41
aS'Known\n'
p42
asS'1.A.1.2.14'
p43
(lp44
S'H2EZS9'
p45
aS'Inorganic'
p46
aS'Cations'
p47
aS'K+'
p48
aS'29103'
p49
aS'Known\n'
p50
asS'2.A.21.6.2'
p51
(lp52
S'Q9FHJ8'
p53
aS'Organic'
p54
aS'Amines'
p55
aS'Urea'
p56
aS'16199'
p57
aS'Known'
p58
aS'Y\n'
p59
asS'2.A.2.4.8'
p60
(lp61
S'Q96JT2'
p62
aS'Organic'
p63
aS'Sugars'
p64
aS'Sucrose'
p65
aS'17992'
p66
aS'Known\n'
p67
asS'3.A.1.102.1'
p68
(lp69
S'P50333'
p70
aS'Organic'
p71
aS'Sugar derivatives'
p72
aS'Lipooligosaccharides'
p73
aS'27897'
p74
aS'Predicted\n'
p75
asS'3.A.1.11.4'
p76
(lp77
S'O70110'
p78
aS'Organic'
p79
aS'Amines'
p80
aS'Chrysopine'
p81
aS'83079'
p82
aS'Predicted\n'
p83
asS'2.A.1.35.1'
p84
(lp85
S'P52067'
p86
aS'Organic'
p87
aS'Drugs'
p88
aS'Fosmidomycin'
p89
aS'443725'
p90
aS'Known'
p91
aS'Y\n'
p92
asS'5.A.3.4.2'
p93
(lp94
S'P52005'
p95
aS'Inorganic'
p96
aS'Electrons'
p97
aS'Electrons'
p98
aS'10545'
p99
aS'Known\n'
p100
asS'2.A.2.2.1'
p101
(lp102
S'P23936'
p103
aS'Organic'
p104
aS'"Sugars, sugar alcohols"'
p105
aS'"Lactose, _-galactooligosaccharides, lactitol"'
p106
aS'"17716, 24151, 75323"'
p107
aS'Known\n'
p108
asS'4.C.1.1.6'
p109
(lp110
S'P31552'
p111
aS'Organic'
p112
aS'Amines'
p113
aS'"Carnitine, crotonobetaine"'
p114
aS'"17126, 3926"'
p115
aS'Known\n'
p116
asS'1.A.35.4.1'
p117
(lp118
S'Q9EYX5'
p119
aS'Inorganic'
p120
aS'Cations'
p121
aS'"Zn2+, Cd2+"'
p122
aS'"29105, 48775"'
p123
aS'Known\n'
p124
asS'9.A.8.1.7'
p125
(lp126
S'A9P5Q3'
p127
aS'Inorganic'
p128
aS'Cations'
p129
aS'Fe2+'
p130
aS'29033'
p131
aS'Predicted\n'
p132
asS'3.A.1.106.2'
p133
(lp134
S'Q2G2M9'
p135
aS'Organic'
p136
aS'Drugs'
p137
aS'"Doxorubicin, verapamil, ethidium, tetraphenylphosphonium, vinblastine, Hoechst 33342"'
p138
aS'"64816, 9948, 42478, 44880, 27375, 51232"'
p139
aS'Known\n'
p140
asS'3.A.3.4.1'
p141
(lp142
S'P36640'
p143
aS'Inorganic'
p144
aS'Cations'
p145
aS'"Mg2+, Ni2+"'
p146
aS'"18420, 49786"'
p147
aS'Known\n'
p148
asS'2.A.55.3.1'
p149
(lp150
S'P0A769'
p151
aS'Inorganic'
p152
aS'Cations'
p153
aS'"Mn2+, Fe2+, Cd2+, Co2+, Zn2+, Ni2+"'
p154
aS'"29035, 29033, 48775, 48828, 29105, 49786"'
p155
aS'Known'
p156
aS'Y\n'
p157
asS'3.A.1.104.1'
p158
(lp159
S'P42954'
p160
aS'Organic'
p161
aS'Sugar derivatives'
p162
aS'Teichoic acid'
p163
aS'30049'
p164
aS'Known\n'
p165
asS'3.A.1.28.2'
p166
(lp167
S'Q03PY7'
p168
aS'Organic'
p169
aS'Vitamins'
p170
aS'Folate'
p171
aS'62501'
p172
aS'Predicted\n'
p173
asS'2.A.8.1.3'
p174
(lp175
S'P0AC94'
p176
aS'Organic'
p177
aS'Carboxylates'
p178
aS'"Fructuronate, gluconate"'
p179
aS'"24112, 24265"'
p180
aS'Known'
p181
aS'Y\n'
p182
asS'2.A.8.1.2'
p183
(lp184
S'P39344'
p185
aS'Organic'
p186
aS'Carboxylates'
p187
aS'"L-idonate, D-gluconate"'
p188
aS'"17796, 18391"'
p189
aS'Known'
p190
aS'Y\n'
p191
asS'2.A.8.1.1'
p192
(lp193
S'P12012'
p194
aS'Organic'
p195
aS'Carboxylates'
p196
aS'Gluconate'
p197
aS'24265'
p198
aS'Known'
p199
aS'Y\n'
p200
asS'2.A.1.14.14'
p201
(lp202
S'Q8FDB7'
p203
aS'Organic'
p204
aS'Carboxylates'
p205
aS'Galactarate'
p206
aS'16537'
p207
aS'Predicted\n'
p208
asS'2.A.1.14.12'
p209
(lp210
S'P53241'
p211
aS'Organic'
p212
aS'Vitamins'
p213
aS'Biotin'
p214
aS'15956'
p215
aS'Known\n'
p216
asS'2.A.1.14.11'
p217
(lp218
S'P53322'
p219
aS'Organic'
p220
aS'Vitamins'
p221
aS'Nicotinate'
p222
aS'32544'
p223
aS'Known\n'
p224
asS'2.A.8.1.4'
p225
(lp226
S'P39835'
p227
aS'Organic'
p228
aS'Carboxylates'
p229
aS'D-gluconate'
p230
aS'18391'
p231
aS'Known'
p232
aS'Y\n'
p233
asS'2.A.8.1.8'
p234
(lp235
S'P0AC96'
p236
aS'Organic'
p237
aS'Carboxylates'
p238
aS'Gluconate'
p239
aS'24265'
p240
aS'Known'
p241
aS'Y\n'
p242
asS'2.A.4.5.1'
p243
(lp244
S'A4ZUV2'
p245
aS'Inorganic'
p246
aS'Cations'
p247
aS'Mn2+'
p248
aS'29105'
p249
aS'Known'
p250
aS'Y\n'
p251
asS'2.A.36.6.7'
p252
(lp253
S'Q2XWL3'
p254
aS'Inorganic'
p255
aS'Cations'
p256
aS'"Na+, Li+"'
p257
aS'"29101, 49713"'
p258
aS'Known'
p259
aS'Y\n'
p260
asS'2.A.36.6.5'
p261
(lp262
S'Q9KNM9'
p263
aS'Inorganic'
p264
aS'Cations'
p265
aS'K+'
p266
aS'29103'
p267
aS'Known'
p268
aS'Y\n'
p269
asS'1.A.12.2.1'
p270
(lp271
S'Q9FWR4'
p272
aS'Inorganic'
p273
aS'Anions'
p274
aS'Cl-'
p275
aS'17996'
p276
aS'Known'
p277
aS'Y\n'
p278
asS'2.A.36.6.3'
p279
(lp280
S'Q87KV8'
p281
aS'Inorganic'
p282
aS'Cations'
p283
aS'K+'
p284
aS'29103'
p285
aS'Known'
p286
aS'Y\n'
p287
asS'1.A.12.2.2'
p288
(lp289
S'Q8F2Y8'
p290
aS'Inorganic'
p291
aS'Anions'
p292
aS'Cl-'
p293
aS'17996'
p294
aS'Known\n'
p295
asS'1.A.1.2.16'
p296
(lp297
S'Q9ULS6'
p298
aS'Inorganic'
p299
aS'Cations'
p300
aS'K+'
p301
aS'29103'
p302
aS'Known\n'
p303
asS'2.A.1.2.9'
p304
(lp305
S'P31442'
p306
aS'Organic'
p307
aS'Drugs'
p308
aS'"CCCP, benzalkonium, SDS"'
p309
aS'"3020, 8984"'
p310
aS'Known\n'
p311
asS'2.A.113.1.1'
p312
(lp313
S'P64534'
p314
aS'Inorganic'
p315
aS'Cations'
p316
aS'"Ni2+, Co2+"'
p317
aS'"49786, 48828"'
p318
aS'Known'
p319
aS'Y\n'
p320
asS'1.A.46.1.4'
p321
(lp322
S'Q6H1V1'
p323
aS'Inorganic'
p324
aS'Anions'
p325
aS'"SCN-, I-, Cl-"'
p326
aS'"18022, 16382, 17996"'
p327
aS'Known'
p328
aS'Y\n'
p329
asS'2.A.97.1.3'
p330
(lp331
S'P91927'
p332
aS'Inorganic'
p333
aS'Cations'
p334
aS'Ca2+'
p335
aS'29108'
p336
aS'Known'
p337
aS'Y\n'
p338
asS'2.A.42.2.2'
p339
(lp340
S'P0AAD8'
p341
aS'Organic'
p342
aS'Amino acids and derivatives'
p343
aS'"Threonine, serine"'
p344
aS'"26986, 17822"'
p345
aS'Known'
p346
aS'Y\n'
p347
asS'1.A.11.2.8'
p348
(lp349
S'E2CWJ2'
p350
aS'Inorganic'
p351
aS'Cations'
p352
aS'NH4+'
p353
aS'28938'
p354
aS'Known'
p355
aS'Y\n'
p356
asS'3.A.1.22.1'
p357
(lp358
S'Q9S413'
p359
aS'Inorganic'
p360
aS'Cations'
p361
aS'Ni2+'
p362
aS'49786'
p363
aS'Predicted\n'
p364
asS'2.A.29.11.4'
p365
(lp366
S'Q9SUV1'
p367
aS'Organic'
p368
aS'Sugar derivatives'
p369
aS'"ATP, ADP"'
p370
aS'"15422, 16761"'
p371
aS'Known'
p372
aS'Y\n'
p373
asS'2.A.1.1.81'
p374
(lp375
S'Q0SE66'
p376
aS'Organic'
p377
aS'Sugars'
p378
aS'Glucose'
p379
aS'17234'
p380
aS'Predicted\n'
p381
asS'2.A.7.19.2'
p382
(lp383
S'Q9ZPR7'
p384
aS'Organic'
p385
aS'Nucleobases'
p386
aS'"Allantoin, uric acid, xanthine"'
p387
aS'"15676, 27226, 15318"'
p388
aS'Known\n'
p389
asS'3.A.1.24.1'
p390
(lp391
S'P31547'
p392
aS'Organic'
p393
aS'Amino acids and derivatives'
p394
aS'Methionine'
p395
aS'16811'
p396
aS'Known\n'
p397
asS'2.A.1.2.52'
p398
(lp399
S'P39386'
p400
aS'Organic'
p401
aS'Drugs'
p402
aS'Puromycin'
p403
aS'17939'
p404
aS'Known\n'
p405
asS'3.A.1.24.5'
p406
(lp407
S'Q9HT70'
p408
aS'Organic'
p409
aS'Amino acids and derivatives'
p410
aS'Histidine'
p411
aS'27570'
p412
aS'Predicted\n'
p413
asS'3.A.1.23.8'
p414
(lp415
S'D5AUZ7'
p416
aS'Inorganic'
p417
aS'Cations'
p418
aS'"Co2+, Ni2+"'
p419
aS'"48828, 49786"'
p420
aS'Known\n'
p421
asS'2.A.108.2.3'
p422
(lp423
S'P75901'
p424
aS'Inorganic'
p425
aS'Cations'
p426
aS'Fe2+'
p427
aS'29033'
p428
aS'Known'
p429
aS'Y\n'
p430
asS'2.A.35.1.1'
p431
(lp432
S'P27611'
p433
aS'Inorganic'
p434
aS'Cations'
p435
aS'Na+'
p436
aS'29101'
p437
aS'Known'
p438
aS'Y\n'
p439
asS'2.A.23.1.1'
p440
(lp441
S'P21345'
p442
aS'Organic'
p443
aS'Amino acids and derivatives'
p444
aS'"Glutamate, aspartate"'
p445
aS'"29987, 29995"'
p446
aS'Known'
p447
aS'Y\n'
p448
asS'4.A.2.1.17'
p449
(lp450
S'Q9HY55'
p451
aS'Organic'
p452
aS'Sugars'
p453
aS'Fructose'
p454
aS'28757'
p455
aS'Known\n'
p456
asS'3.A.1.26.1'
p457
(lp458
S'A9WGB0'
p459
aS'Organic'
p460
aS'Vitamins'
p461
aS'Thiazole'
p462
aS'43732'
p463
aS'Predicted\n'
p464
asS'3.A.1.26.9'
p465
(lp466
S'Q03PY5'
p467
aS'Organic'
p468
aS'Vitamins'
p469
aS'Folate'
p470
aS'62501'
p471
aS'Known\n'
p472
asS'2.A.117.1.3'
p473
(lp474
S'Q8XG43'
p475
aS'Organic'
p476
aS'Drugs'
p477
aS'Chlorhexidine'
p478
aS'3614'
p479
aS'Known\n'
p480
asS'3.A.1.2.3'
p481
(lp482
S'P0AAG8'
p483
aS'Organic'
p484
aS'Sugars'
p485
aS'"Galactose, glucose"'
p486
aS'"28260, 17234"'
p487
aS'Known\n'
p488
asS'2.A.1.15.2'
p489
(lp490
S'P77589'
p491
aS'Organic'
p492
aS'Carboxylates'
p493
aS'3-(3-hydroxyphenyl)propionate)'
p494
aS'57277'
p495
aS'Known\n'
p496
asS'2.A.1.1.46'
p497
(lp498
S'Q9JIF3'
p499
aS'Organic'
p500
aS'Sugars'
p501
aS'Glucose'
p502
aS'17234'
p503
aS'Known\n'
p504
asS'2.A.20.1.2'
p505
(lp506
S'P43676'
p507
aS'Inorganic'
p508
aS'Anions'
p509
aS'Phosphate'
p510
aS'18367'
p511
aS'Known'
p512
aS'Y\n'
p513
asS'2.A.1.15.1'
p514
(lp515
S'Q51955'
p516
aS'Organic'
p517
aS'Carboxylates'
p518
aS'"4-hydroxybenzoate, protocatechuate"'
p519
aS'"17879, 36084"'
p520
aS'Known\n'
p521
asS'2.A.1.1.43'
p522
(lp523
S'A0ZXK6'
p524
aS'Organic'
p525
aS'Sugars'
p526
aS'Sugars'
p527
aS'16646'
p528
aS'Predicted\n'
p529
asS'2.A.1.1.42'
p530
(lp531
S'Q8G3X1'
p532
aS'Organic'
p533
aS'Sugars'
p534
aS'Glucose'
p535
aS'17234'
p536
aS'Predicted\n'
p537
asS'2.A.55.2.5'
p538
(lp539
S'Q6ZG85'
p540
aS'Inorganic'
p541
aS'Cations'
p542
aS'Al3+'
p543
aS'49470'
p544
aS'Known'
p545
aS'Y\n'
p546
asS'2.A.55.2.4'
p547
(lp548
S'Q9SAH8'
p549
aS'Inorganic'
p550
aS'Cations'
p551
aS'"Fe2+, Co2+, Mn2+"'
p552
aS'"29033, 48828, 29035"'
p553
aS'Known'
p554
aS'Y\n'
p555
asS'4.A.2.1.6'
p556
(lp557
S'O31645'
p558
aS'Organic'
p559
aS'Sugars'
p560
aS'Mannose'
p561
aS'37684'
p562
aS'Known\n'
p563
asS'4.A.2.1.5'
p564
(lp565
S'P42956'
p566
aS'Organic'
p567
aS'Sugar alcohols'
p568
aS'Mannitol'
p569
aS'29864'
p570
aS'Known\n'
p571
asS'4.A.2.1.3'
p572
(lp573
S'P54745'
p574
aS'Organic'
p575
aS'Carboxylates'
p576
aS'2-O-_-mannosyl D-glycerate'
p577
aS''
p578
aS'Known\n'
p579
asS'4.A.2.1.2'
p580
(lp581
S'P00550'
p582
aS'Organic'
p583
aS'Sugar alcohols'
p584
aS'Mannitol'
p585
aS'29864'
p586
aS'Known\n'
p587
asS'4.A.2.1.1'
p588
(lp589
S'P69811'
p590
aS'Organic'
p591
aS'Sugars'
p592
aS'Fructose'
p593
aS'28757'
p594
aS'Known\n'
p595
asS'2.A.1.1.48'
p596
(lp597
S'Q9LNV3'
p598
aS'Organic'
p599
aS'Sugars'
p600
aS'Sugars'
p601
aS'16646'
p602
aS'Known\n'
p603
asS'2.A.4.7.1'
p604
(lp605
S'P69380'
p606
aS'Inorganic'
p607
aS'Cations'
p608
aS'"Zn2+, Cd2+, Hg2+, Fe2+"'
p609
aS'"29105, 48775, 16793, 29033"'
p610
aS'Known\n'
p611
asS'1.B.18.3.1'
p612
(lp613
S'P0A930'
p614
aS'Macromolecules'
p615
aS'Polysaccharides'
p616
aS'Colanic acid'
p617
aS'60963'
p618
aS'Known'
p619
aS'Y\n'
p620
asS'2.A.4.4.5'
p621
(lp622
S'Q8NEW0'
p623
aS'Inorganic'
p624
aS'Cations'
p625
aS'Zn2+'
p626
aS'29105'
p627
aS'Known'
p628
aS'Y\n'
p629
asS'2.A.4.4.1'
p630
(lp631
S'Q03455'
p632
aS'Inorganic'
p633
aS'Cations'
p634
aS'Zn2+'
p635
aS'29105'
p636
aS'Known'
p637
aS'Y\n'
p638
asS'1.B.1.1.2'
p639
(lp640
S'P02932'
p641
aS'Inorganic'
p642
aS'Anions'
p643
aS'Anions'
p644
aS'22563'
p645
aS'Known\n'
p646
asS'4.A.1.2.7'
p647
(lp648
S'P77272'
p649
aS'Organic'
p650
aS'Sugar derivatives'
p651
aS'N-acetylmuramic acid'
p652
aS'47965'
p653
aS'Known'
p654
aS'Y\n'
p655
asS'2.A.1.13.1'
p656
(lp657
S'P53985'
p658
aS'Organic'
p659
aS'Carboxylates'
p660
aS'Monocarboxylates'
p661
aS'35757'
p662
aS'Known\n'
p663
asS'2.A.1.13.2'
p664
(lp665
S'Q91Y77'
p666
aS'Organic'
p667
aS'Amino acids and derivatives'
p668
aS'"Tyrosine, tryptophan, phenylalanine"'
p669
ag578
aS'Known\n'
p670
asS'4.A.1.2.4'
p671
(lp672
S'P36672'
p673
aS'Organic'
p674
aS'Sugars'
p675
aS'Trehalose'
p676
aS'27082'
p677
aS'Known\n'
p678
asS'3.A.1.1.13'
p679
(lp680
S'Q97UZ1'
p681
aS'Organic'
p682
aS'Sugars'
p683
aS'"Glucose, mannose, galactose"'
p684
aS'"17234, 37684, 28260"'
p685
aS'Predicted\n'
p686
asS'2.A.12.1.16'
p687
(lp688
S'Q39002'
p689
aS'Organic'
p690
aS'Sugar derivatives'
p691
aS'"ATP, ADP"'
p692
aS'"15422, 16761"'
p693
aS'Known'
p694
aS'Y\n'
p695
asS'1.A.56.1.13'
p696
(lp697
S'Q5ZD08'
p698
aS'Inorganic'
p699
aS'Cations'
p700
aS'Cu+'
p701
aS'49552'
p702
aS'Known'
p703
aS'Y\n'
p704
asS'3.A.1.11.3'
p705
(lp706
S'Q44384'
p707
aS'Organic'
p708
aS'Amines'
p709
aS'Mannopine'
p710
aS'80662'
p711
aS'Predicted\n'
p712
asS'2.A.3.1.12'
p713
(lp714
S'Q46065'
p715
aS'Organic'
p716
aS'Amino acids and derivatives'
p717
aS'"Tryptophan, phenylalanine, histidine, tyrosine"'
p718
aS'"27897, 28044, 27570, 18186"'
p719
aS'Predicted\n'
p720
asS'2.A.3.1.13'
p721
(lp722
S'P76037'
p723
aS'Organic'
p724
aS'Amines'
p725
aS'Putrescine'
p726
aS'17148'
p727
aS'Known\n'
p728
asS'2.A.3.1.10'
p729
(lp730
S'Q47689'
p731
aS'Organic'
p732
aS'Amino acids and derivatives'
p733
aS'Methylmethionine'
p734
aS'44003'
p735
aS'Predicted\n'
p736
asS'2.A.3.1.11'
p737
(lp738
S'P39137'
p739
aS'Organic'
p740
aS'Amino acids and derivatives'
p741
aS'Arginine'
p742
aS'29016'
p743
aS'Known\n'
p744
asS'2.A.1.5.2'
p745
(lp746
S'P16552'
p747
aS'Organic'
p748
aS'Sugars'
p749
aS'Raffinose'
p750
aS'16634'
p751
aS'Known\n'
p752
asS'2.A.1.5.3'
p753
(lp754
S'P30000'
p755
aS'Organic'
p756
aS'Sugars'
p757
aS'Sucrose'
p758
aS'17992'
p759
aS'Predicted\n'
p760
asS'3.A.7.19.1'
p761
(lp762
S'Q5G3M2'
p763
aS'Macromolecules'
p764
aS'Nucleic acids'
p765
aS'DNA'
p766
aS'4705'
p767
aS'Known\n'
p768
asS'2.A.1.5.1'
p769
(lp770
S'P02920'
p771
aS'Organic'
p772
aS'Sugars'
p773
aS'Lactose'
p774
aS'17716'
p775
aS'Known\n'
p776
asS'2.A.3.1.18'
p777
(lp778
S'K7VV21'
p779
aS'Organic'
p780
aS'Amino acids and derivatives'
p781
aS'Lysine'
p782
aS'25094'
p783
aS'Predicted\n'
p784
asS'2.A.3.1.19'
p785
(lp786
S'K7WL41'
p787
aS'Organic'
p788
aS'Amino acids and derivatives'
p789
aS'"Lysine, histidine, arginine"'
p790
aS'"25094, 27570, 29016"'
p791
aS'Predicted\n'
p792
asS'2.A.3.3.2'
p793
(lp794
S'P18581'
p795
aS'Organic'
p796
aS'Amino acids and derivatives'
p797
aS'"Arginine, lysine, ornithine"'
p798
aS'"29016, 25094, 18257"'
p799
aS'Known\n'
p800
asS'2.A.3.3.3'
p801
(lp802
S'Q84MA5'
p803
aS'Organic'
p804
aS'Amino acids and derivatives'
p805
aS'Amino acids'
p806
aS'33709'
p807
aS'Known\n'
p808
asS'2.A.3.3.1'
p809
(lp810
S'Q09143'
p811
aS'Organic'
p812
aS'Amino acids and derivatives'
p813
aS'"Arginine, lysine, ornithine"'
p814
aS'"29016, 25094, 18257"'
p815
aS'Known\n'
p816
asS'2.A.3.3.4'
p817
(lp818
S'Q9LZ20'
p819
aS'Organic'
p820
aS'Amino acids and derivatives'
p821
aS'Amino acids'
p822
aS'33709'
p823
aS'Known\n'
p824
asS'2.A.3.3.5'
p825
(lp826
S'P70423'
p827
aS'Organic'
p828
aS'Amino acids and derivatives'
p829
aS'"Arginine, lysine, ornithine, 2,4-diamino-n-butyrate"'
p830
aS'"29016, 25094, 18257, 16028"'
p831
aS'Known\n'
p832
asS'3.A.1.11.2'
p833
(lp834
S'P31133'
p835
aS'Organic'
p836
aS'Amines'
p837
aS'Putrescine'
p838
aS'17148'
p839
aS'Known\n'
p840
asS'2.A.3.3.8'
p841
(lp842
S'P52569'
p843
aS'Organic'
p844
aS'Amino acids and derivatives'
p845
aS'Amino acids'
p846
aS'33709'
p847
aS'Known\n'
p848
asS'2.A.3.3.9'
p849
(lp850
S'P30825'
p851
aS'Organic'
p852
aS'Amino acids and derivatives'
p853
aS'Amino acids'
p854
aS'33709'
p855
aS'Known\n'
p856
asS'2.A.1.11.3'
p857
(lp858
S'P37662'
p859
aS'Organic'
p860
aS'Carboxylates'
p861
aS'Oxalate'
p862
aS'30623'
p863
aS'Predicted\n'
p864
asS'2.A.1.11.1'
p865
(lp866
S'Q51330'
p867
aS'Organic'
p868
aS'Carboxylates'
p869
aS'"Oxalate, formate"'
p870
aS'"132952, 15740"'
p871
aS'Known\n'
p872
asS'2.A.1.1.32'
p873
(lp874
S'P15729'
p875
aS'Organic'
p876
aS'Sugars'
p877
aS'"Glucose, fructose"'
p878
aS'"17234, 28757"'
p879
aS'Predicted\n'
p880
asS'2.A.3.1.1'
p881
(lp882
S'P24207'
p883
aS'Organic'
p884
aS'Amino acids and derivatives'
p885
aS'Phenylalanine'
p886
aS'28044'
p887
aS'Known\n'
p888
asS'2.A.3.1.2'
p889
(lp890
S'P25737'
p891
aS'Organic'
p892
aS'Amino acids and derivatives'
p893
aS'Lysine'
p894
aS'53558'
p895
aS'Known\n'
p896
asS'2.A.3.1.3'
p897
(lp898
S'P15993'
p899
aS'Organic'
p900
aS'Amino acids and derivatives'
p901
aS'"Phenylalanine, tryptophan, tyrosine"'
p902
aS'"28044, 27897, 18186"'
p903
aS'Known\n'
p904
asS'2.A.3.1.4'
p905
(lp906
S'P25527'
p907
aS'Organic'
p908
aS'Amines'
p909
aS'GABA'
p910
aS'16865'
p911
aS'Known\n'
p912
asS'2.A.1.1.37'
p913
(lp914
S'Q6PXP3'
p915
aS'Organic'
p916
aS'Sugars'
p917
aS'"Glucose, fructose"'
p918
aS'"17234, 28757"'
p919
aS'Known\n'
p920
asS'2.A.3.1.6'
p921
(lp922
S'P37460'
p923
aS'Organic'
p924
aS'Amino acids and derivatives'
p925
aS'Proline'
p926
aS'26271'
p927
aS'Predicted\n'
p928
asS'2.A.3.1.7'
p929
(lp930
S'P0AAE0'
p931
aS'Organic'
p932
aS'Amino acids and derivatives'
p933
aS'Serine'
p934
aS'17822'
p935
aS'Known\n'
p936
asS'2.A.3.1.8'
p937
(lp938
S'P40812'
p939
aS'Organic'
p940
aS'Amino acids and derivatives'
p941
aS'Asparagine'
p942
aS'22653'
p943
aS'Predicted\n'
p944
asS'2.A.7.10.3'
p945
(lp946
S'Q869W7'
p947
aS'Organic'
p948
aS'Sugar derviatives'
p949
aS'UDP-N-acetylglucosamine'
p950
aS'16264'
p951
aS'Known'
p952
aS'Y\n'
p953
asS'2.A.1.1.38'
p954
(lp955
S'P39932'
p956
aS'Organic'
p957
aS'Sugar alcohols'
p958
aS'Glycerol'
p959
aS'17754'
p960
aS'Known\n'
p961
asS'2.A.1.1.39'
p962
(lp963
S'P49374'
p964
aS'Organic'
p965
aS'Sugars'
p966
aS'Glucose'
p967
aS'17234'
p968
aS'Known\n'
p969
asS'3.A.1.110.1'
p970
(lp971
S'Q93GK6'
p972
aS'Macromolecules'
p973
aS'Proteins'
p974
aS'Microcin'
p975
aS'64627'
p976
aS'Known\n'
p977
asS'2.A.1.7.4'
p978
(lp979
S'Q80T22'
p980
aS'Organic'
p981
aS'Sugars'
p982
aS'Glucose'
p983
aS'17234'
p984
aS'Known'
p985
aS'Y\n'
p986
asS'2.A.1.7.5'
p987
(lp988
S'Q8XEV7'
p989
aS'Organic'
p990
aS'Sugars'
p991
aS'2-deoxyribose'
p992
aS'28816'
p993
aS'Predicted\n'
p994
asS'1.A.14.2.1'
p995
(lp996
S'P0AAC6'
p997
aS'Unknown'
p998
aS'Cations'
p999
aS'Cations'
p1000
aS'36916'
p1001
aS'Predicted\n'
p1002
asS'2.A.1.7.7'
p1003
(lp1004
S'O25788'
p1005
aS'Organic'
p1006
aS'Sugars'
p1007
aS'"Glucose, galactose, mannose, 2-deoxyglucose"'
p1008
aS'"17234, 28260, 37684, 15866"'
p1009
aS'Predicted\n'
p1010
asS'2.A.3.3.10'
p1011
(lp1012
S'Q8WY07'
p1013
aS'Organic'
p1014
aS'Amino acids and derivatives'
p1015
aS'Amino acids'
p1016
aS'33709'
p1017
aS'Known\n'
p1018
asS'2.A.1.7.1'
p1019
(lp1020
S'P11551'
p1021
aS'Organic'
p1022
aS'Sugars'
p1023
aS'Fucose'
p1024
aS'33984'
p1025
aS'Known\n'
p1026
asS'2.A.3.3.12'
p1027
(lp1028
S'O64759'
p1029
aS'Organic'
p1030
aS'Amino acids and derivatives'
p1031
aS'Amino acids'
p1032
aS'33709'
p1033
aS'Known\n'
p1034
asS'2.A.1.7.3'
p1035
(lp1036
S'O07563'
p1037
aS'Organic'
p1038
aS'Sugars'
p1039
aS'"Glucose, mannose, xylose"'
p1040
aS'"17234, 37684, 18222"'
p1041
aS'Known\n'
p1042
asS'1.B.14.1.20'
p1043
(lp1044
S'P13036'
p1045
aS'Organic'
p1046
aS'Siderophores'
p1047
aS'Fe3+-citrate'
p1048
aS'4991'
p1049
aS'Known'
p1050
aS'Y\n'
p1051
asS'2.A.29.13.1'
p1052
(lp1053
S'P33303'
p1054
aS'Organic'
p1055
aS'Carboxylates'
p1056
aS'"Succinate, fumarate"'
p1057
aS'"26806, 29806"'
p1058
aS'Known'
p1059
aS'Y\n'
p1060
asS'2.A.3.3.19'
p1061
(lp1062
S'Q9I6R8'
p1063
aS'Organic'
p1064
aS'Amines'
p1065
aS'Histamine'
p1066
aS'18295'
p1067
aS'Known\n'
p1068
asS'2.A.29.2.13'
p1069
(lp1070
S'Q02978'
p1071
aS'Organic'
p1072
aS'Carboxylates'
p1073
aS'"2-oxoglutarate, malate"'
p1074
aS'"16810, 15595"'
p1075
aS'Known'
p1076
aS'Y\n'
p1077
asS'1.A.11.1.1'
p1078
(lp1079
S'P69681'
p1080
aS'Inorganic'
p1081
aS'Cations'
p1082
aS'Ammonia'
p1083
aS'16134'
p1084
aS'Known\n'
p1085
asS'2.A.1.1.3'
p1086
(lp1087
S'P0AGF4'
p1088
aS'Organic'
p1089
aS'Sugars'
p1090
aS'Xylose'
p1091
aS'18222'
p1092
aS'Known\n'
p1093
asS'2.A.1.1.1'
p1094
(lp1095
S'P0AEP1'
p1096
aS'Organic'
p1097
aS'Sugars'
p1098
aS'Galactose'
p1099
aS'28260'
p1100
aS'Known\n'
p1101
asS'2.A.1.1.6'
p1102
(lp1103
S'P13181'
p1104
aS'Organic'
p1105
aS'Sugars'
p1106
aS'"Galactose, glucose, xylose"'
p1107
aS'"28260, 17234, 18222"'
p1108
aS'Known\n'
p1109
asS'2.A.1.1.7'
p1110
(lp1111
S'P11636'
p1112
aS'Organic'
p1113
aS'Sugar alcohols'
p1114
aS'Quinate'
p1115
aS'26490'
p1116
aS'Known\n'
p1117
asS'2.A.1.1.4'
p1118
(lp1119
S'P21906'
p1120
aS'Organic'
p1121
aS'Sugars'
p1122
aS'Glucose'
p1123
aS'17234'
p1124
aS'Predicted\n'
p1125
asS'2.A.1.1.5'
p1126
(lp1127
S'P43581'
p1128
aS'Organic'
p1129
aS'Sugars'
p1130
aS'Hexoses'
p1131
aS'18133'
p1132
aS'Known\n'
p1133
asS'2.A.1.1.8'
p1134
(lp1135
S'P30605'
p1136
aS'Organic'
p1137
aS'Sugar alcohols'
p1138
aS'Myo-inositol'
p1139
aS'17268'
p1140
aS'Known\n'
p1141
asS'2.A.1.1.9'
p1142
(lp1143
S'P07921'
p1144
aS'Organic'
p1145
aS'Sugars'
p1146
aS'"Lactose, galactose"'
p1147
aS'"17716, 28260"'
p1148
aS'Known\n'
p1149
asS'3.A.1.28.1'
p1150
(lp1151
S'Q8Z3V8'
p1152
aS'Organic'
p1153
aS'Nucleoside'
p1154
aS'Queuosine'
p1155
aS'60193'
p1156
aS'Predicted\n'
p1157
asS'1.A.1.8.1'
p1158
(lp1159
S'O08581'
p1160
aS'Inorganic'
p1161
aS'Cations'
p1162
aS'K+'
p1163
aS'29103'
p1164
aS'Known\n'
p1165
asS'1.A.3.2.16'
p1166
(lp1167
S'Q9Y0A1'
p1168
aS'Inorganic'
p1169
aS'Cations'
p1170
aS'Ca2+'
p1171
aS'29108'
p1172
aS'Predicted\n'
p1173
asS'1.A.3.2.17'
p1174
(lp1175
S'A8JF83'
p1176
aS'Inorganic'
p1177
aS'Cations'
p1178
aS'Ca2+'
p1179
aS'29108'
p1180
aS'Predicted\n'
p1181
asS'1.A.3.2.14'
p1182
(lp1183
S'Q57XB2'
p1184
aS'Inorganic'
p1185
aS'Cations'
p1186
aS'Ca2+'
p1187
aS'29108'
p1188
aS'Predicted\n'
p1189
asS'1.A.3.2.12'
p1190
(lp1191
S'G7ZUA4'
p1192
aS'Inorganic'
p1193
aS'Cations'
p1194
aS'Ca2+'
p1195
aS'29108'
p1196
aS'Predicted\n'
p1197
asS'1.A.3.2.13'
p1198
(lp1199
S'G7ZUA5'
p1200
aS'Inorganic'
p1201
aS'Cations'
p1202
aS'Ca2+'
p1203
aS'29108'
p1204
aS'Predicted\n'
p1205
asS'1.A.3.2.10'
p1206
(lp1207
S'G7ZUA0'
p1208
aS'Inorganic'
p1209
aS'Cations'
p1210
aS'Ca2+'
p1211
aS'29108'
p1212
aS'Predicted\n'
p1213
asS'1.A.3.2.11'
p1214
(lp1215
S'G7ZUA3'
p1216
aS'Inorganic'
p1217
aS'Cations'
p1218
aS'Ca2+'
p1219
aS'29108'
p1220
aS'Predicted\n'
p1221
asS'2.A.2.4.1'
p1222
(lp1223
S'Q39232'
p1224
aS'Organic'
p1225
aS'Sugars'
p1226
aS'Sucrose'
p1227
aS'17992'
p1228
aS'Known\n'
p1229
asS'2.A.76.1.1'
p1230
(lp1231
S'P0AG34'
p1232
aS'Organic'
p1233
aS'Amino acids and derivatives'
p1234
aS'"Homoserine, homoserine lactone"'
p1235
aS'"30653, 17289"'
p1236
aS'Known'
p1237
aS'Y\n'
p1238
asS'5.A.3.2.1'
p1239
(lp1240
S'P0AAJ3'
p1241
aS'Inorganic'
p1242
aS'Electrons'
p1243
aS'Electrons'
p1244
aS'10545'
p1245
aS'Known\n'
p1246
asS'2.A.76.1.2'
p1247
(lp1248
S'P0AG38'
p1249
aS'Organic'
p1250
aS'Amino acids and derivatives'
p1251
aS'Threonine'
p1252
aS'26986'
p1253
aS'Known'
p1254
aS'Y\n'
p1255
asS'2.A.76.1.5'
p1256
(lp1257
S'P76249'
p1258
aS'Organic'
p1259
aS'Amino acids and derivatives'
p1260
aS'Leucine'
p1261
aS'25017'
p1262
aS'Known'
p1263
aS'Y\n'
p1264
asS'2.A.76.1.4'
p1265
(lp1266
S'P38101'
p1267
aS'Organic'
p1268
aS'Amino acids and derivatives'
p1269
aS'"O-acetylserine, cysteine, azaserine"'
p1270
aS'"17981, 15356, 74846"'
p1271
aS'Known'
p1272
aS'Y\n'
p1273
asS'2.A.38.2.3'
p1274
(lp1275
S'P28584'
p1276
aS'Inorganic'
p1277
aS'Cations'
p1278
aS'K+'
p1279
aS'29103'
p1280
aS'Known'
p1281
aS'Y\n'
p1282
asS'4.A.3.2.1'
p1283
(lp1284
S'P69795'
p1285
aS'Organic'
p1286
aS'Sugar derivatives'
p1287
aS'"N,N\'-diacetylchitobiose"'
p1288
aS'28681'
p1289
aS'Known\n'
p1290
asS'3.A.11.2.2'
p1291
(lp1292
S'Q57134'
p1293
aS'Macromolecules'
p1294
aS'Nucleic acids'
p1295
aS'ssDNA'
p1296
aS'9160'
p1297
aS'Known\n'
p1298
asS'2.A.1.9.8'
p1299
(lp1300
S'Q09852'
p1301
aS'Inorganic'
p1302
aS'Anions'
p1303
aS'Phosphate'
p1304
aS'24838'
p1305
aS'Known\n'
p1306
asS'2.A.1.9.9'
p1307
(lp1308
S'Q8VYM2'
p1309
aS'Inorganic'
p1310
aS'Anions'
p1311
aS'Phosphate'
p1312
aS'24838'
p1313
aS'Known\n'
p1314
asS'2.A.1.9.2'
p1315
(lp1316
S'Q7RVX9'
p1317
aS'Inorganic'
p1318
aS'Anions'
p1319
aS'Phosphate'
p1320
aS'24838'
p1321
aS'Known\n'
p1322
asS'9.A.18.1.1'
p1323
(lp1324
S'P0AFY6'
p1325
aS'Macromolecules'
p1326
aS'Proteins'
p1327
aS'Microcin'
p1328
aS'64627'
p1329
aS'Known\n'
p1330
asS'2.A.1.9.1'
p1331
(lp1332
S'P25297'
p1333
aS'Inorganic'
p1334
aS'"Anions, cations"'
p1335
aS'"Phosphate, selenite, Mn2+"'
p1336
aS'"24838, 18212, 29035"'
p1337
aS'Known\n'
p1338
asS'2.A.1.9.6'
p1339
(lp1340
S'A5H2U6'
p1341
aS'Inorganic'
p1342
aS'Anions'
p1343
aS'Phosphate'
p1344
aS'24838'
p1345
aS'Known'
p1346
aS'Y\n'
p1347
asS'2.A.1.9.7'
p1348
(lp1349
S'P25346'
p1350
aS'Organic'
p1351
ag578
aS'"Glycerophosphoinositol, glycerophosphocholine"'
p1352
aS'"36315, 36313"'
p1353
aS'Known'
p1354
aS'Y\n'
p1355
asS'2.A.1.9.4'
p1356
(lp1357
S'Q01MW8'
p1358
aS'Inorganic'
p1359
aS'Anions'
p1360
aS'Phosphate'
p1361
aS'24838'
p1362
aS'Known\n'
p1363
asS'2.A.1.9.5'
p1364
(lp1365
S'Q8H6H0'
p1366
aS'Inorganic'
p1367
aS'Anions'
p1368
aS'Phosphate'
p1369
aS'24838'
p1370
aS'Known\n'
p1371
asS'2.A.29.23.4'
p1372
(lp1373
S'O04619'
p1374
aS'Organic'
p1375
aS'Sugar derivatives'
p1376
aS'"AMP, ADP, ATP"'
p1377
aS'"16027, 16761, 15422"'
p1378
aS'Known'
p1379
aS'Y\n'
p1380
asS'3.A.3.2.19'
p1381
(lp1382
S'Q9SY55'
p1383
aS'Inorganic'
p1384
aS'Cations'
p1385
aS'"Ca2+, Mn2+"'
p1386
aS'"29108, 29035"'
p1387
aS'Known\n'
p1388
asS'2.A.1.25.1'
p1389
(lp1390
S'O00400'
p1391
aS'Organic'
p1392
aS'Cofactors'
p1393
aS'"Acetyl-CoA, CoA"'
p1394
aS'"15351, 15346"'
p1395
aS'Known'
p1396
aS'Y\n'
p1397
asS'2.A.62.1.2'
p1398
(lp1399
S'Q56EB3'
p1400
aS'Inorganic'
p1401
aS'Cations'
p1402
aS'"Na+, Li+"'
p1403
aS'"29101, 49713"'
p1404
aS'Known'
p1405
aS'Y\n'
p1406
asS'2.A.3.5.1'
p1407
(lp1408
S'Q53148'
p1409
aS'Organic'
p1410
aS'Amines'
p1411
aS'Ethanolamine'
p1412
aS'16000'
p1413
aS'Predicted\n'
p1414
asS'2.A.3.5.2'
p1415
(lp1416
S'Q8TUC6'
p1417
aS'Organic'
p1418
aS'Amines'
p1419
aS'Methylamine'
p1420
aS'16830'
p1421
aS'Predicted\n'
p1422
asS'2.A.62.1.1'
p1423
(lp1424
S'O66163'
p1425
aS'Inorganic'
p1426
aS'Cations'
p1427
aS'Na+'
p1428
aS'29101'
p1429
aS'Known'
p1430
aS'Y\n'
p1431
asS'3.A.3.2.11'
p1432
(lp1433
S'Q37145'
p1434
aS'Inorganic'
p1435
aS'Cations'
p1436
aS'Ca2+'
p1437
aS'29108'
p1438
aS'Known\n'
p1439
asS'3.A.3.2.14'
p1440
(lp1441
S'Q9LU41'
p1442
aS'Inorganic'
p1443
aS'Cations'
p1444
aS'Ca2+'
p1445
aS'29108'
p1446
aS'Known\n'
p1447
asS'2.A.39.3.8'
p1448
(lp1449
S'P75712'
p1450
aS'Organic'
p1451
aS'Nucleobases'
p1452
aS'Allantoin'
p1453
aS'15676'
p1454
aS'Known'
p1455
aS'Y\n'
p1456
asS'9.B.14.2.2'
p1457
(lp1458
S'P30962'
p1459
aS'Organic'
p1460
aS'Siderophores'
p1461
aS'Heme'
p1462
aS'30413'
p1463
aS'Predicted\n'
p1464
asS'1.A.4.3.4'
p1465
(lp1466
S'D8LH97'
p1467
aS'Inorganic'
p1468
aS'Cations'
p1469
aS'Ca2+'
p1470
aS'29108'
p1471
aS'Predicted\n'
p1472
asS'1.A.4.3.5'
p1473
(lp1474
S'D8LH99'
p1475
aS'Inorganic'
p1476
aS'Cations'
p1477
aS'Ca2+'
p1478
aS'29108'
p1479
aS'Predicted\n'
p1480
asS'1.A.4.3.2'
p1481
(lp1482
S'Q9VUD5'
p1483
aS'Inorganic'
p1484
aS'Cations'
p1485
aS'Ca2+'
p1486
aS'29108'
p1487
aS'Known\n'
p1488
asS'1.A.4.3.3'
p1489
(lp1490
S'O61220'
p1491
aS'Inorganic'
p1492
aS'Cations'
p1493
aS'Ca2+'
p1494
aS'29108'
p1495
aS'Predicted\n'
p1496
asS'1.B.14.10.1'
p1497
(lp1498
S'P95494'
p1499
aS'Organic'
p1500
aS'Siderophores'
p1501
aS'Heme'
p1502
aS'30413'
p1503
aS'Known'
p1504
aS'Y\n'
p1505
asS'2.A.1.14.10'
p1506
(lp1507
S'Q9NRA2'
p1508
aS'Organic'
p1509
aS'Sugar derivatives'
p1510
aS'Sialic acid'
p1511
aS'26667'
p1512
aS'Known\n'
p1513
asS'2.A.123.1.9'
p1514
(lp1515
S'Q8L9J7'
p1516
aS'Organic'
p1517
aS'Sugars'
p1518
aS'Glucose'
p1519
aS'17234'
p1520
aS'Known'
p1521
aS'Y\n'
p1522
asS'2.A.1.1.61'
p1523
(lp1524
S'Q9FMX3'
p1525
aS'Organic'
p1526
aS'Sugars'
p1527
aS'Sugars'
p1528
aS'16646'
p1529
aS'Known\n'
p1530
asS'9.A.40.1.2'
p1531
(lp1532
S'P0A2L3'
p1533
aS'Inorganic'
p1534
aS'Cations'
p1535
aS'Co2+'
p1536
aS'48828'
p1537
aS'Known\n'
p1538
asS'2.A.6.1.4'
p1539
(lp1540
S'P77239'
p1541
aS'Inorganic'
p1542
aS'Cations'
p1543
aS'"Cu+, Ag+"'
p1544
aS'"49552, 49468"'
p1545
aS'Known\n'
p1546
asS'2.A.2.4.2'
p1547
(lp1548
S'Q9SXM0'
p1549
aS'Organic'
p1550
aS'Sugars'
p1551
aS'Sucrose'
p1552
aS'17992'
p1553
aS'Known'
p1554
aS'Y\n'
p1555
asS'2.A.2.4.3'
p1556
(lp1557
S'O80605'
p1558
aS'Organic'
p1559
aS'Sugars'
p1560
aS'Sucrose'
p1561
aS'17992'
p1562
aS'Known'
p1563
aS'Y\n'
p1564
asS'1.A.16.1.2'
p1565
(lp1566
S'P77733'
p1567
aS'Organic'
p1568
aS'Carboxylates'
p1569
aS'Formate'
p1570
aS'15740'
p1571
aS'Predicted\n'
p1572
asS'2.A.1.2.18'
p1573
(lp1574
S'Q9S3J9'
p1575
aS'Organic'
p1576
aS'Sugars'
p1577
aS'"Lactose, melibiose"'
p1578
aS'"17716, 28053"'
p1579
aS'Predicted\n'
p1580
asS'2.A.2.4.6'
p1581
(lp1582
S'Q9FE59'
p1583
aS'Organic'
p1584
aS'Sugars'
p1585
aS'Sucrose'
p1586
aS'17992'
p1587
aS'Known'
p1588
aS'Y\n'
p1589
asS'1.A.16.1.1'
p1590
(lp1591
S'P0AC23'
p1592
aS'Organic'
p1593
aS'Carboxylates'
p1594
aS'Formate'
p1595
aS'15740'
p1596
aS'Predicted\n'
p1597
asS'2.A.1.2.15'
p1598
(lp1599
S'P31122'
p1600
aS'Organic'
p1601
aS'Sugars'
p1602
aS'"Arabinose, isopropyl _-D-thio-galactopyranoside"'
p1603
aS'22599'
p1604
aS'Known\n'
p1605
asS'2.A.1.2.14'
p1606
(lp1607
S'P23910'
p1608
aS'Organic'
p1609
aS'Sugars'
p1610
aS'Arabinose'
p1611
aS'22599'
p1612
aS'Predicted\n'
p1613
asS'2.A.39.1.1'
p1614
(lp1615
S'P0AA82'
p1616
aS'Organic'
p1617
aS'Nucleosides'
p1618
aS'Cytosine'
p1619
aS'16040'
p1620
aS'Known'
p1621
aS'Y\n'
p1622
asS'3.A.1.1.41'
p1623
(lp1624
S'G4FGN8'
p1625
aS'Organic'
p1626
aS'Sugars'
p1627
aS'Trehalose'
p1628
aS'27082'
p1629
aS'Predicted\n'
p1630
asS'3.A.1.17.11'
p1631
(lp1632
S'D1CEG8'
p1633
aS'Organic'
p1634
aS'Vitamins'
p1635
aS'Riboflavin'
p1636
aS'17015'
p1637
aS'Predicted\n'
p1638
asS'4.A.4.1.1'
p1639
(lp1640
S'P56579'
p1641
aS'Organic'
p1642
aS'Sugar alcohols'
p1643
aS'Glucitol'
p1644
aS'30911'
p1645
aS'Known\n'
p1646
asS'3.A.1.11.6'
p1647
(lp1648
S'Q1M7Q4'
p1649
aS'Organic'
p1650
aS'Amino acids and derivatives'
p1651
aS'_-aminobutyric acid'
p1652
aS'16865'
p1653
aS'Predicted\n'
p1654
asS'2.A.37.1.8'
p1655
(lp1656
S'Q8VYR9'
p1657
aS'Inorganic'
p1658
aS'Cations'
p1659
aS'"H+, K+"'
p1660
aS'"24636, 29103"'
p1661
aS'Known'
p1662
aS'Y\n'
p1663
asS'1.B.76.1.8'
p1664
(lp1665
S'P36649'
p1666
aS'Inorganic'
p1667
aS'Cations'
p1668
aS'Cu2+'
p1669
aS'29036'
p1670
aS'Known\n'
p1671
asS'4.A.2.1.19'
p1672
(lp1673
S'M7QAG8'
p1674
aS'Organic'
p1675
aS'Sugars'
p1676
aS'Tagatose'
p1677
aS'33954'
p1678
aS'Known\n'
p1679
asS'2.A.7.3.1'
p1680
(lp1681
S'O06933'
p1682
aS'Organic'
p1683
aS'Carboxylates'
p1684
aS'Acetate'
p1685
aS'30098'
p1686
aS'Predicted\n'
p1687
asS'2.A.37.1.4'
p1688
(lp1689
S'Q9ZTZ7'
p1690
aS'Inorganic'
p1691
aS'Cations'
p1692
aS'"H+, K+"'
p1693
aS'"24636, 29103"'
p1694
aS'Known'
p1695
aS'Y\n'
p1696
asS'1.B.76.1.4'
p1697
(lp1698
S'G9EQG6'
p1699
aS'Inorganic'
p1700
aS'Cations'
p1701
aS'Cu2+'
p1702
aS'29036'
p1703
aS'Predicted'
p1704
aS'Y\n'
p1705
asS'2.A.37.1.6'
p1706
(lp1707
S'Q9M0Z3'
p1708
aS'Inorganic'
p1709
aS'Cations'
p1710
aS'"H+, K+"'
p1711
aS'"24636, 29103"'
p1712
aS'Known'
p1713
aS'Y\n'
p1714
asS'4.A.2.1.14'
p1715
(lp1716
S'D2RXA4'
p1717
aS'Organic'
p1718
aS'Sugars'
p1719
aS'Fructose'
p1720
aS'28757'
p1721
aS'Known\n'
p1722
asS'2.A.1.1.130'
p1723
(lp1724
S'Q63ZP5'
p1725
aS'Organic'
p1726
aS'Sugars'
p1727
aS'Glucose'
p1728
aS'17234'
p1729
aS'Predicted\n'
p1730
asS'2.A.37.1.1'
p1731
(lp1732
S'P0A754'
p1733
aS'Inorganic'
p1734
aS'Cations'
p1735
aS'K+'
p1736
aS'29103'
p1737
aS'Known'
p1738
aS'Y\n'
p1739
asS'2.A.37.1.2'
p1740
(lp1741
S'P0A756'
p1742
aS'Inorganic'
p1743
aS'Cations'
p1744
aS'K+'
p1745
aS'29103'
p1746
aS'Known'
p1747
aS'Y\n'
p1748
asS'2.A.1.6.4'
p1749
(lp1750
S'P0C0L7'
p1751
aS'Organic'
p1752
aS'Amino acids and derivatives'
p1753
aS'"Proline, glycine betaine"'
p1754
aS'"26271, 17750"'
p1755
aS'Known\n'
p1756
asS'2.A.56.1.2'
p1757
(lp1758
S'P37674'
p1759
aS'Organic'
p1760
aS'Carboxylates'
p1761
aS'"2,3-diketo-L-gulonate"'
p1762
aS'57441'
p1763
aS'Known'
p1764
aS'Y\n'
p1765
asS'9.B.14.2.4'
p1766
(lp1767
S'Q9I3N5'
p1768
aS'Organic'
p1769
aS'Siderophores'
p1770
aS'Heme'
p1771
aS'30413'
p1772
aS'Predicted\n'
p1773
asS'2.A.19.4.12'
p1774
(lp1775
S'C3ZMW2'
p1776
aS'Inorganic'
p1777
aS'Catoins'
p1778
aS'Ca2+'
p1779
aS'29108'
p1780
aS'Predicted'
p1781
aS'Y\n'
p1782
asS'3.A.1.1.15'
p1783
(lp1784
S'Q97ZC3'
p1785
aS'Organic'
p1786
aS'Sugars'
p1787
aS'Trehalose'
p1788
aS'27082'
p1789
aS'Predicted\n'
p1790
asS'2.A.1.14.40'
p1791
(lp1792
S'C4ZZU4'
p1793
aS'Organic'
p1794
aS'Carboxylates'
p1795
aS'Glucarate'
p1796
aS'30613'
p1797
aS'Predicted\n'
p1798
asS'3.A.1.17.14'
p1799
(lp1800
S'A9WGD2'
p1801
aS'Organic'
p1802
aS'Vitamins'
p1803
aS'Riboflavin'
p1804
aS'17015'
p1805
aS'Predicted\n'
p1806
asS'1.A.1.9.3'
p1807
(lp1808
S'O88454'
p1809
aS'Inorganic'
p1810
aS'Cations'
p1811
aS'K+'
p1812
aS'29103'
p1813
aS'Known\n'
p1814
asS'1.A.1.9.2'
p1815
(lp1816
S'O14649'
p1817
aS'Inorganic'
p1818
aS'Cations'
p1819
aS'K+'
p1820
aS'29103'
p1821
aS'Known\n'
p1822
asS'2.A.1.1.63'
p1823
(lp1824
S'Q9C757'
p1825
aS'Organic'
p1826
aS'Sugar alcohols'
p1827
aS'Myo-inositol'
p1828
aS'17268'
p1829
aS'Known\n'
p1830
asS'3.A.1.113.3'
p1831
(lp1832
S'P33941'
p1833
aS'Organic'
p1834
aS'Peptides'
p1835
aS'Microcin'
p1836
aS'64627'
p1837
aS'Known\n'
p1838
asS'1.A.1.9.4'
p1839
(lp1840
S'Q9JIS4'
p1841
aS'Inorganic'
p1842
aS'Cations'
p1843
aS'K+'
p1844
aS'29103'
p1845
aS'Known\n'
p1846
asS'2.A.29.1.2'
p1847
(lp1848
S'P12235'
p1849
aS'Organic'
p1850
aS'Sugar derivatives'
p1851
aS'"ATP, ADP"'
p1852
aS'"15422, 16761"'
p1853
aS'Known'
p1854
aS'Y\n'
p1855
asS'2.A.10.1.3'
p1856
(lp1857
S'P50847'
p1858
aS'Organic'
p1859
aS'Sugar derivatives'
p1860
aS'2-keto-3-deoxygluconate'
p1861
aS'17032'
p1862
aS'Known\n'
p1863
asS'2.A.36.6.2'
p1864
(lp1865
S'Q9LCB5'
p1866
aS'Inorganic'
p1867
aS'Cations'
p1868
aS'"Na+, Li+"'
p1869
aS'"29101, 49713"'
p1870
aS'Known'
p1871
aS'Y\n'
p1872
asS'2.A.8.1.5'
p1873
(lp1874
S'P08555'
p1875
aS'Organic'
p1876
aS'Amino acids and derivatives'
p1877
aS'Serine'
p1878
aS'17822'
p1879
aS'Known'
p1880
aS'Y\n'
p1881
asS'2.A.29.29.1'
p1882
(lp1883
S'Q04013'
p1884
aS'Organic'
p1885
aS'Carboxylates'
p1886
aS'"Citrate, oxoglutarate, succinate, fumarate"'
p1887
aS'"35808, 16810, 26806, 29806"'
p1888
aS'Known'
p1889
aS'Y\n'
p1890
asS'3.A.1.1.40'
p1891
(lp1892
S'Q9WZR7'
p1893
aS'Organic'
p1894
aS'Sugars'
p1895
aS'Chitobiose'
p1896
aS'50674'
p1897
aS'Predicted\n'
p1898
asS'9.B.82.1.3'
p1899
(lp1900
S'O48670'
p1901
aS'Inorganic'
p1902
aS'Cations'
p1903
aS'Heavy metal cations'
p1904
aS'25213'
p1905
aS'Predicted\n'
p1906
asS'2.A.1.1.62'
p1907
(lp1908
S'O23492'
p1909
aS'Organic'
p1910
aS'Sugar alcohols'
p1911
aS'Myo-inositol'
p1912
aS'17268'
p1913
aS'Known\n'
p1914
asS'2.A.36.6.1'
p1915
(lp1916
S'O29412'
p1917
aS'Inorganic'
p1918
aS'Cations'
p1919
aS'Na+'
p1920
aS'29101'
p1921
aS'Known'
p1922
aS'Y\n'
p1923
asS'3.A.1.1.42'
p1924
(lp1925
S'Q9FBS7'
p1926
aS'Organic'
p1927
aS'Sugars'
p1928
aS'_-Glucosides'
p1929
aS'60979'
p1930
aS'Predicted\n'
p1931
asS'3.A.1.23.7'
p1932
(lp1933
S'D5AQY6'
p1934
aS'Inorganic'
p1935
aS'Cations'
p1936
aS'"Co2+, Ni2+"'
p1937
aS'"48828, 49786"'
p1938
aS'Known\n'
p1939
asS'2.A.89.1.2'
p1940
(lp1941
S'Q9ZUA5'
p1942
aS'Inorganic'
p1943
aS'Cations'
p1944
aS'Fe2+'
p1945
aS'29033'
p1946
aS'Known'
p1947
aS'Y\n'
p1948
asS'3.A.1.2.8'
p1949
(lp1950
S'P76142'
p1951
aS'Organic'
p1952
aS'Sugar derivatives'
p1953
aS'Autoinducer-2'
p1954
aS'40646'
p1955
aS'Known'
p1956
aS'Y\n'
p1957
asS'2.A.49.5.1'
p1958
(lp1959
S'P37019'
p1960
aS'Inorganic'
p1961
aS'Anions'
p1962
aS'Cl-'
p1963
aS'17996'
p1964
aS'Known'
p1965
aS'Y\n'
p1966
asS'1.A.1.3.6'
p1967
(lp1968
S'Q6UVM3'
p1969
aS'Inorganic'
p1970
aS'Cations'
p1971
aS'K+'
p1972
aS'29103'
p1973
aS'Known\n'
p1974
asS'1.B.14.1.13'
p1975
(lp1976
S'A3ZKG8'
p1977
aS'Inorganic'
p1978
aS'Cations'
p1979
aS'Fe3+'
p1980
aS'29034'
p1981
aS'Known'
p1982
aS'Y\n'
p1983
asS'1.B.14.1.15'
p1984
(lp1985
S'Q05202'
p1986
aS'Organic'
p1987
aS'Siderophores'
p1988
aS'Fe3+-ferrichrome'
p1989
aS'"5019, 28855"'
p1990
aS'Known'
p1991
aS'Y\n'
p1992
asS'2.A.85.1.2'
p1993
(lp1994
S'P46481'
p1995
aS'Organic'
p1996
aS'Carboxylates'
p1997
aS'p-Hydroxybenzoate'
p1998
aS'17879'
p1999
aS'Known'
p2000
aS'Y\n'
p2001
asS'2.A.1.1.78'
p2002
(lp2003
S'O61060'
p2004
aS'Organic'
p2005
aS'Sugars'
p2006
aS'Glucose'
p2007
aS'17234'
p2008
aS'Predicted\n'
p2009
asS'2.A.1.1.79'
p2010
(lp2011
S'Q1XF07'
p2012
aS'Organic'
p2013
aS'Sugars'
p2014
aS'Xylitol'
p2015
aS'17151'
p2016
aS'Predicted\n'
p2017
asS'2.A.1.1.76'
p2018
(lp2019
S'O76486'
p2020
aS'Organic'
p2021
aS'Sugars'
p2022
aS'Glucose'
p2023
aS'17234'
p2024
aS'Predicted\n'
p2025
asS'2.A.1.1.77'
p2026
(lp2027
S'O61059'
p2028
aS'Organic'
p2029
aS'Sugars'
p2030
aS'"Glucose, ribose"'
p2031
aS'"17234, 33942"'
p2032
aS'Known\n'
p2033
asS'2.A.1.1.74'
p2034
(lp2035
S'Q926Q9'
p2036
aS'Organic'
p2037
aS'Sugars'
p2038
aS'Rhamnose'
p2039
aS'26546'
p2040
aS'Predicted\n'
p2041
asS'2.A.1.1.75'
p2042
(lp2043
S'Q9XIH7'
p2044
aS'Organic'
p2045
aS'Sugars'
p2046
aS'"Fructose, xylose"'
p2047
aS'"28757, 18222"'
p2048
aS'Predicted\n'
p2049
asS'2.A.1.1.72'
p2050
(lp2051
S'Q9NRM0'
p2052
aS'Organic'
p2053
aS'Nucleobases'
p2054
aS'Urate'
p2055
aS'27226'
p2056
aS'Known\n'
p2057
asS'2.A.1.1.73'
p2058
(lp2059
S'Q5A8J5'
p2060
aS'Organic'
p2061
aS'Sugar alcohols'
p2062
aS'Glycerol'
p2063
aS'16199'
p2064
aS'Predicted\n'
p2065
asS'2.A.1.1.71'
p2066
(lp2067
S'B1PLM1'
p2068
aS'Organic'
p2069
aS'Sugars'
p2070
aS'Hexoses'
p2071
aS'18133'
p2072
aS'Predicted\n'
p2073
asS'2.A.85.7.1'
p2074
(lp2075
S'P33011'
p2076
aS'Organic'
p2077
aS'Carboxylates'
p2078
aS'Fusaric acid'
p2079
aS'5199'
p2080
aS'Predicted'
p2081
aS'Y\n'
p2082
asS'1.B.14.2.2'
p2083
(lp2084
S'P31499'
p2085
aS'Organic'
p2086
aS'Siderophore'
p2087
aS'Heme'
p2088
aS'30413'
p2089
aS'Known'
p2090
aS'Y\n'
p2091
asS'2.A.19.2.8'
p2092
(lp2093
S'O59940'
p2094
aS'Inorganic'
p2095
aS'Cations'
p2096
aS'Ca2+'
p2097
aS'29108'
p2098
aS'Known'
p2099
aS'Y\n'
p2100
asS'2.A.40.7.4'
p2101
(lp2102
S'P31440'
p2103
aS'Organic'
p2104
aS'Nucleobases'
p2105
aS'"Hypoxanthine, guanosine"'
p2106
aS'"17368, 16750"'
p2107
aS'Known'
p2108
aS'Y\n'
p2109
asS'2.A.40.7.5'
p2110
(lp2111
S'P0AF52'
p2112
aS'Organic'
p2113
aS'Nucleobases'
p2114
aS'"Guanine, hypoxanthine, xanthine"'
p2115
ag578
aS'Known'
p2116
aS'Y\n'
p2117
asS'1.A.35.1.1'
p2118
(lp2119
S'P0ABI4'
p2120
aS'Inorganic'
p2121
aS'Cations'
p2122
aS'"Mg2+, Co2+, Ni2+"'
p2123
aS'"18420, 48828, 49786"'
p2124
aS'Known\n'
p2125
asS'1.A.1.10.9'
p2126
(lp2127
S'Q9UI33'
p2128
aS'Inorganic'
p2129
aS'Cations'
p2130
aS'Na+'
p2131
aS'29101'
p2132
aS'Known\n'
p2133
asS'1.A.1.10.6'
p2134
(lp2135
S'Q62968'
p2136
aS'Inorganic'
p2137
aS'Cations'
p2138
aS'Na+'
p2139
aS'29101'
p2140
aS'Known\n'
p2141
asS'2.A.19.2.2'
p2142
(lp2143
S'Q99385'
p2144
aS'Inorganic'
p2145
aS'Cations'
p2146
aS'"Mn2+, Ca2+"'
p2147
aS'"29035, 29108"'
p2148
aS'Known'
p2149
aS'Y\n'
p2150
asS'1.A.1.10.4'
p2151
(lp2152
S'P35499'
p2153
aS'Inorganic'
p2154
aS'Cations'
p2155
aS'Na+'
p2156
aS'29101'
p2157
aS'Known\n'
p2158
asS'1.A.1.10.5'
p2159
(lp2160
S'Q15858'
p2161
aS'Inorganic'
p2162
aS'Cations'
p2163
aS'Na+'
p2164
aS'29101'
p2165
aS'Known\n'
p2166
asS'1.A.1.10.2'
p2167
(lp2168
S'P90670'
p2169
aS'Inorganic'
p2170
aS'Cations'
p2171
aS'Na+'
p2172
aS'29101'
p2173
aS'Predicted\n'
p2174
asS'3.A.2.2.5'
p2175
(lp2176
S'P59229'
p2177
aS'Inorganic'
p2178
aS'Cations'
p2179
aS'H+'
p2180
aS'24636'
p2181
aS'Known\n'
p2182
asS'1.A.1.10.1'
p2183
(lp2184
S'P08104'
p2185
aS'Inorganic'
p2186
aS'Cations'
p2187
aS'Na+'
p2188
aS'29101'
p2189
aS'Known\n'
p2190
asS'1.A.1.3.8'
p2191
(lp2192
S'G53DJ1'
p2193
aS'Inorganic'
p2194
aS'Cations'
p2195
aS'K+'
p2196
aS'29103'
p2197
aS'Known\n'
p2198
asS'3.A.1.5.19'
p2199
(lp2200
S'Q2FZR7'
p2201
aS'Organic'
p2202
aS'Peptides'
p2203
aS'Oligopeptides'
p2204
aS'25676'
p2205
aS'Predicted\n'
p2206
asS'3.A.1.5.18'
p2207
(lp2208
S'O54584'
p2209
aS'Organic'
p2210
aS'Peptides'
p2211
aS'Oligopeptides'
p2212
aS'25676'
p2213
aS'Predicted\n'
p2214
asS'3.A.1.5.17'
p2215
(lp2216
S'Q92NF1'
p2217
aS'Organic'
p2218
aS'Amino acids and derivatives'
p2219
aS'Proline betaine'
p2220
aS'35280'
p2221
aS'Predicted\n'
p2222
asS'3.A.1.5.16'
p2223
(lp2224
S'Q9WXN8'
p2225
aS'Organic'
p2226
aS'Sugars'
p2227
aS'_-Glucosides'
p2228
aS'60980'
p2229
aS'Predicted\n'
p2230
asS'3.A.1.5.15'
p2231
(lp2232
S'Q9X272'
p2233
aS'Organic'
p2234
aS'Sugars'
p2235
aS'"Mannose, mannosides"'
p2236
aS'"37684, 25169"'
p2237
aS'Predicted\n'
p2238
asS'3.A.1.5.14'
p2239
(lp2240
S'Q9X0V0'
p2241
aS'Organic'
p2242
aS'Sugars'
p2243
aS'Cellobiose'
p2244
aS'17057'
p2245
aS'Predicted'
p2246
ag578
ag578
ag578
ag578
ag578
ag578
ag578
ag578
ag578
ag578
ag578
ag578
ag578
ag578
ag578
ag578
asS'3.A.1.5.13'
p2247
(lp2248
S'Q9WXT0'
p2249
aS'Organic'
p2250
aS'Sugars'
p2251
aS'Xylanoligosaccharides'
p2252
aS'71299'
p2253
aS'Predicted\n'
p2254
asS'3.A.1.5.12'
p2255
(lp2256
S'Q9X0F7'
p2257
aS'Organic'
p2258
aS'Sugars'
p2259
aS'Rhamnooligosaccharides'
p2260
aS'55333'
p2261
aS'Predicted\n'
p2262
asS'3.A.1.5.11'
p2263
(lp2264
S'P75796'
p2265
aS'Organic'
p2266
aS'Peptides'
p2267
aS'Glutathione'
p2268
aS'16856'
p2269
aS'Known\n'
p2270
asS'3.A.1.5.10'
p2271
(lp2272
S'Q9CEK0'
p2273
aS'Organic'
p2274
aS'Peptides'
p2275
aS'Oligopeptides'
p2276
aS'25676'
p2277
aS'Predicted\n'
p2278
asS'1.A.35.5.3'
p2279
(lp2280
S'Q058N4'
p2281
aS'Inorganic'
p2282
aS'Cations'
p2283
aS'Mg2+'
p2284
aS'18420'
p2285
aS'Known'
p2286
aS'Y\n'
p2287
asS'1.A.35.5.2'
p2288
(lp2289
S'Q9SAH0'
p2290
aS'Inorganic'
p2291
aS'Cations'
p2292
aS'Mg2+'
p2293
aS'18420'
p2294
aS'Known'
p2295
aS'Y\n'
p2296
asS'9.B.126.1.1'
p2297
(lp2298
S'P37642'
p2299
aS'Macromolecules'
p2300
aS'Lipids'
p2301
aS'Lipids'
p2302
aS'18059'
p2303
aS'Predicted\n'
p2304
asS'1.A.35.5.5'
p2305
(lp2306
S'Q02783'
p2307
aS'Inorganic'
p2308
aS'Cations'
p2309
aS'Mg2+'
p2310
aS'18420'
p2311
aS'Known'
p2312
aS'Y\n'
p2313
asS'1.A.35.5.4'
p2314
(lp2315
S'Q93ZD7'
p2316
aS'Inorganic'
p2317
aS'Cations'
p2318
aS'Mg2+'
p2319
aS'18420'
p2320
aS'Known'
p2321
aS'Y\n'
p2322
asS'3.A.1.14.16'
p2323
(lp2324
S'A8GDS8'
p2325
aS'Organic'
p2326
aS'Siderophores'
p2327
aS'Heme'
p2328
aS'30413'
p2329
aS'Predicted\n'
p2330
asS'3.A.1.14.17'
p2331
(lp2332
S'Q7A652'
p2333
aS'Organic'
p2334
aS'Siderophores'
p2335
aS'Heme'
p2336
aS'30413'
p2337
aS'Known\n'
p2338
asS'3.A.1.14.14'
p2339
(lp2340
S'Q06A41'
p2341
aS'Organic'
p2342
aS'Siderophores'
p2343
aS'"Fe3+-ferrichrome, heme"'
p2344
aS'"5019, 30413"'
p2345
aS'Predicted\n'
p2346
asS'3.A.1.14.15'
p2347
(lp2348
S'P40411'
p2349
aS'Organic'
p2350
aS'Siderophores'
p2351
aS'Fe3+-bacillibactin'
p2352
aS'31432'
p2353
aS'Known\n'
p2354
asS'3.A.1.14.12'
p2355
(lp2356
S'Q9L179'
p2357
aS'Organic'
p2358
aS'Siderophores'
p2359
aS'Desferrioxamine B'
p2360
aS'4356'
p2361
aS'Predicted\n'
p2362
asS'2.A.68.1.1'
p2363
(lp2364
S'P46133'
p2365
aS'Organic'
p2366
aS'Amino acids and derivatives'
p2367
aS'p-Aminobenzoyl-glutamate'
p2368
aS'60903'
p2369
aS'Known'
p2370
aS'Y\n'
p2371
asS'2.A.2.4.9'
p2372
(lp2373
S'Q9UMX9'
p2374
aS'Organic'
p2375
aS'Sugars'
p2376
aS'Sucrose'
p2377
aS'17992'
p2378
aS'Known\n'
p2379
asS'2.A.40.3.3'
p2380
(lp2381
S'Q46821'
p2382
aS'Organic'
p2383
aS'Nucleobases'
p2384
aS'"Urate, xanthine"'
p2385
aS'"27216, 18107"'
p2386
aS'Known'
p2387
aS'Y\n'
p2388
asS'1.A.1.22.1'
p2389
(lp2390
S'Q2W0I8'
p2391
aS'Inorganic'
p2392
aS'Cations'
p2393
aS'K+'
p2394
aS'29103'
p2395
aS'Predicted\n'
p2396
asS'2.A.1.1.88'
p2397
(lp2398
S'Q9UGQ3'
p2399
aS'Organic'
p2400
aS'Sugars'
p2401
aS'Glucose'
p2402
aS'17234'
p2403
aS'Known\n'
p2404
asS'5.A.1.1.1'
p2405
(lp2406
S'P36655'
p2407
aS'Inorganic'
p2408
aS'Electrons'
p2409
aS'Electrons'
p2410
aS'10545'
p2411
aS'Known\n'
p2412
asS'3.A.1.2.11'
p2413
(lp2414
S'Q92WK4'
p2415
aS'Organic'
p2416
aS'Sugar alcohols'
p2417
aS'Erythritol'
p2418
aS'17113'
p2419
aS'Predicted\n'
p2420
asS'1.A.5.1.1'
p2421
(lp2422
S'Q86VP3'
p2423
aS'Inorganic'
p2424
aS'Cations'
p2425
aS'Divalent cations'
p2426
aS'79388'
p2427
aS'Known\n'
p2428
asS'2.A.31.4.1'
p2429
(lp2430
S'Q8NBS3'
p2431
aS'Inorganic'
p2432
aS'Anions'
p2433
aS'Boride'
p2434
aS'30166'
p2435
aS'Known'
p2436
aS'Y\n'
p2437
asS'1.A.62.2.1'
p2438
(lp2439
S'A0M015'
p2440
aS'Inorganic'
p2441
aS'"Cations, metabolites"'
p2442
aS'"Cations, metabolites"'
p2443
aS'36916'
p2444
aS'Predicted\n'
p2445
asS'1.A.16.3.4'
p2446
(lp2447
S'K6JRX1'
p2448
aS'Inorganic'
p2449
aS'Anions'
p2450
aS'Nitrate'
p2451
aS'17632'
p2452
aS'Known\n'
p2453
asS'2.A.106.2.2'
p2454
(lp2455
S'Q9HC07'
p2456
aS'Inorganic'
p2457
aS'Cations'
p2458
aS'Ca2+'
p2459
aS'29108'
p2460
aS'Known'
p2461
aS'Y\n'
p2462
asS'3.A.1.21.1'
p2463
(lp2464
S'Q9R7V3'
p2465
aS'Organic'
p2466
aS'Siderophores'
p2467
aS'Fe3+-yersiniabactin'
p2468
aS'29707'
p2469
aS'Known\n'
p2470
asS'1.A.1.24.3'
p2471
(lp2472
S'Q1D027'
p2473
aS'Inorganic'
p2474
aS'Cations'
p2475
aS'K+'
p2476
aS'29103'
p2477
aS'Predicted\n'
p2478
asS'1.A.1.24.2'
p2479
(lp2480
S'Q08U57'
p2481
aS'Inorganic'
p2482
aS'Cations'
p2483
aS'K+'
p2484
aS'29103'
p2485
aS'Predicted\n'
p2486
asS'1.A.1.24.1'
p2487
(lp2488
S'Q02006'
p2489
aS'Inorganic'
p2490
aS'Cations'
p2491
aS'K+'
p2492
aS'29103'
p2493
aS'Predicted\n'
p2494
asS'1.A.1.24.5'
p2495
(lp2496
S'A0NP85'
p2497
aS'Inorganic'
p2498
aS'Cations'
p2499
aS'K+'
p2500
aS'29103'
p2501
aS'Predicted\n'
p2502
asS'1.A.1.24.4'
p2503
(lp2504
S'B7K3R7'
p2505
aS'Inorganic'
p2506
aS'Cations'
p2507
aS'K+'
p2508
aS'29103'
p2509
aS'Known'
p2510
aS'Y\n'
p2511
asS'2.A.109.1.1'
p2512
(lp2513
S'Q7B1W8'
p2514
aS'Inorganic'
p2515
aS'Anions'
p2516
aS'Telluride'
p2517
aS'30453'
p2518
aS'Predicted'
p2519
aS'Y\n'
p2520
asS'3.A.1.12.11'
p2521
(lp2522
S'Q8Q043'
p2523
aS'Organic'
p2524
aS'Amino acids and derivatives'
p2525
aS'Glycine betaine'
p2526
aS'17750'
p2527
aS'Predicted\n'
p2528
asS'2.A.16.1.1'
p2529
(lp2530
S'P25396'
p2531
aS'Inorganic'
p2532
aS'Anions'
p2533
aS'Tellurite'
p2534
aS'30477'
p2535
aS'Known'
p2536
aS'Y\n'
p2537
asS'3.A.1.12.13'
p2538
(lp2539
S'A9CI32'
p2540
aS'Organic'
p2541
aS'Amines'
p2542
aS'Choline'
p2543
aS'15354'
p2544
aS'Predicted\n'
p2545
asS'3.A.1.12.14'
p2546
(lp2547
S'Q8ZPK4'
p2548
aS'Organic'
p2549
aS'Amino acids and derivatives'
p2550
aS'"Glycine betaine, choline-O-sulfate"'
p2551
aS'"17750, 16822"'
p2552
aS'Known\n'
p2553
asS'3.A.1.12.15'
p2554
(lp2555
S'P33359'
p2556
aS'Organic'
p2557
aS'Amino acids and derivatives'
p2558
aS'"Glycine, betaine, choline"'
p2559
aS'"17750, 15354"'
p2560
aS'Known\n'
p2561
asS'2.A.40.1.1'
p2562
(lp2563
S'P0AGM7'
p2564
aS'Organic'
p2565
aS'Nucleosides'
p2566
aS'Uracil'
p2567
aS'17568'
p2568
aS'Known'
p2569
aS'Y\n'
p2570
asS'2.A.2.4.12'
p2571
(lp2572
S'Q9C8X2'
p2573
aS'Organic'
p2574
aS'Sugars'
p2575
aS'Sucrose'
p2576
aS'17992'
p2577
aS'Known\n'
p2578
asS'2.A.2.4.13'
p2579
(lp2580
S'Q9VSV1'
p2581
aS'Organic'
p2582
aS'Sugars'
p2583
aS'Sucrose'
p2584
aS'17992'
p2585
aS'Predicted\n'
p2586
asS'2.A.2.4.10'
p2587
(lp2588
S'Q9Y2W3'
p2589
aS'Organic'
p2590
aS'Sugars'
p2591
aS'Glucose'
p2592
aS'17234'
p2593
aS'Known\n'
p2594
asS'2.A.2.4.11'
p2595
(lp2596
S'Q69JW3'
p2597
aS'Organic'
p2598
aS'Sugars'
p2599
aS'Sucrose'
p2600
aS'17992'
p2601
aS'Known\n'
p2602
asS'5.A.1.5.1'
p2603
(lp2604
S'O33918'
p2605
aS'Inorganic'
p2606
aS'Electrons'
p2607
aS'Electrons'
p2608
aS'10545'
p2609
aS'Known\n'
p2610
asS'2.A.31.2.7'
p2611
(lp2612
S'Q8I8G6'
p2613
aS'Inorganic'
p2614
aS'Anions'
p2615
aS'"Cl-, HCO3-"'
p2616
aS'"17996, 17544"'
p2617
aS'Known'
p2618
aS'Y\n'
p2619
asS'2.A.31.2.6'
p2620
(lp2621
S'Q9VM32'
p2622
aS'Inorganic'
p2623
aS'Anions'
p2624
aS'"Cl-, HCO3-"'
p2625
aS'"17996, 17544"'
p2626
aS'Known'
p2627
aS'Y\n'
p2628
asS'2.A.7.3.26'
p2629
(lp2630
S'P0ABT9'
p2631
aS'Organic'
p2632
aS'Amino acids and derivatives'
p2633
aS'Cystine'
p2634
aS'17376'
p2635
aS'Known\n'
p2636
asS'1.A.4.4.1'
p2637
(lp2638
S'Q12324'
p2639
aS'Inorganic'
p2640
aS'Cations'
p2641
aS'Ca2+'
p2642
aS'29108'
p2643
aS'Known\n'
p2644
asS'1.A.2.2.3'
p2645
(lp2646
S'Q7NZ13'
p2647
aS'Inorganic'
p2648
aS'Cations'
p2649
aS'K+'
p2650
aS'29103'
p2651
aS'Predicted\n'
p2652
asS'1.A.4.7.2'
p2653
(lp2654
S'Q9VMR4'
p2655
aS'Inorganic'
p2656
aS'Cations'
p2657
aS'Cations'
p2658
aS'36916'
p2659
aS'Known\n'
p2660
asS'2.A.33.1.1'
p2661
(lp2662
S'P13738'
p2663
aS'Inorganic'
p2664
aS'Cations'
p2665
aS'Na+'
p2666
aS'29101'
p2667
aS'Known'
p2668
aS'Y\n'
p2669
asS'1.A.1.16.2'
p2670
(lp2671
S'O15554'
p2672
aS'Inorganic'
p2673
aS'Cations'
p2674
aS'K+'
p2675
aS'29103'
p2676
aS'Known\n'
p2677
asS'1.A.1.16.3'
p2678
(lp2679
S'Q7KVW5'
p2680
aS'Inorganic'
p2681
aS'Cations'
p2682
aS'K+'
p2683
aS'29103'
p2684
aS'Known\n'
p2685
asS'1.A.1.16.4'
p2686
(lp2687
S'Q8I4G4'
p2688
aS'Inorganic'
p2689
aS'Cations'
p2690
aS'K+'
p2691
aS'29103'
p2692
aS'Predicted\n'
p2693
asS'1.A.1.16.5'
p2694
(lp2695
S'A4ZYA4'
p2696
aS'Inorganic'
p2697
aS'Cations'
p2698
aS'K+'
p2699
aS'29103'
p2700
aS'Predicted\n'
p2701
asS'2.A.1.46.7'
p2702
(lp2703
S'P37621'
p2704
aS'Organic'
p2705
aS'Sugars'
p2706
aS'Arabinose'
p2707
aS'22599'
p2708
aS'Known\n'
p2709
asS'2.A.3.13.1'
p2710
(lp2711
S'P39277'
p2712
aS'Organic'
p2713
aS'Amino acids and derivatives'
p2714
aS'Methionine'
p2715
aS'16811'
p2716
aS'Known\n'
p2717
asS'2.A.4.3.7'
p2718
(lp2719
S'O14863'
p2720
aS'Inorganic'
p2721
aS'Cations'
p2722
aS'Zn2+'
p2723
aS'29105'
p2724
aS'Known'
p2725
aS'Y\n'
p2726
asS'1.A.1.14.2'
p2727
(lp2728
S'Q8L1H6'
p2729
aS'Inorganic'
p2730
aS'Cations'
p2731
aS'Na+'
p2732
aS'29101'
p2733
aS'Predicted\n'
p2734
asS'1.A.4.5.1'
p2735
(lp2736
S'Q96QT4'
p2737
aS'Inorganic'
p2738
aS'Cations'
p2739
aS'Mg2+'
p2740
aS'29105'
p2741
aS'Known\n'
p2742
asS'1.A.4.5.2'
p2743
(lp2744
S'Q7Z4N2'
p2745
aS'Inorganic'
p2746
aS'Cations'
p2747
aS'Ca2+'
p2748
aS'29108'
p2749
aS'Known\n'
p2750
asS'3.A.1.24.2'
p2751
(lp2752
S'O32169'
p2753
aS'Organic'
p2754
aS'Amino acids and derivatives'
p2755
aS'"Methionine, methionine sulfoxide"'
p2756
aS'"16811, 49033"'
p2757
aS'Known\n'
p2758
asS'1.A.1.14.6'
p2759
(lp2760
S'A0L5S6'
p2761
aS'Inorganic'
p2762
aS'Cations'
p2763
aS'Na+'
p2764
aS'29101'
p2765
aS'Predicted\n'
p2766
asS'1.A.1.14.7'
p2767
(lp2768
S'F5L478'
p2769
aS'Inorganic'
p2770
aS'Cations'
p2771
aS'Na+'
p2772
aS'29101'
p2773
aS'Predicted\n'
p2774
asS'1.A.4.5.6'
p2775
(lp2776
S'Q9HCF6'
p2777
aS'Inorganic'
p2778
aS'Cations'
p2779
aS'Ca2+'
p2780
aS'29108'
p2781
aS'Known\n'
p2782
asS'1.A.1.14.5'
p2783
(lp2784
S'A8EVM5'
p2785
aS'Inorganic'
p2786
aS'Cations'
p2787
aS'Na+'
p2788
aS'29101'
p2789
aS'Predicted\n'
p2790
asS'1.A.4.5.8'
p2791
(lp2792
S'Q9BX84'
p2793
aS'Inorganic'
p2794
aS'Cations'
p2795
aS'"Ca2+, Mg2+"'
p2796
aS'"29108, 29105"'
p2797
aS'Known\n'
p2798
asS'1.A.4.5.9'
p2799
(lp2800
S'A8DYE2'
p2801
aS'Inorganic'
p2802
aS'Cations'
p2803
aS'Cations'
p2804
aS'36916'
p2805
aS'Known\n'
p2806
asS'1.A.1.14.8'
p2807
(lp2808
S'J8TM36'
p2809
aS'Inorganic'
p2810
aS'Cations'
p2811
aS'Na+'
p2812
aS'29101'
p2813
aS'Predicted\n'
p2814
asS'2.A.1.3.26'
p2815
(lp2816
S'P36554'
p2817
aS'Organic'
p2818
aS'Drugs'
p2819
aS'"Novobiocin, deoxycholate"'
p2820
aS'"28368, 23614"'
p2821
aS'Predicted\n'
p2822
asS'3.A.11.1.4'
p2823
(lp2824
S'G2JSZ8'
p2825
aS'Macromolecules'
p2826
aS'Nucleic acids'
p2827
aS'ssDNA'
p2828
aS'9160'
p2829
aS'Known\n'
p2830
asS'3.A.1.24.4'
p2831
(lp2832
S'Q8NSN3'
p2833
aS'Organic'
p2834
aS'Amino acids and derivatives'
p2835
aS'Methionine'
p2836
aS'16811'
p2837
aS'Predicted\n'
p2838
asS'1.A.4.2.13'
p2839
(lp2840
S'Q8NER1'
p2841
aS'Inorganic'
p2842
aS'Cations'
p2843
aS'Ca2+'
p2844
aS'29108'
p2845
aS'Known\n'
p2846
asS'1.A.4.2.12'
p2847
(lp2848
S'Q6JQN0'
p2849
aS'Inorganic'
p2850
aS'Cations'
p2851
aS'Ca2+'
p2852
aS'29108'
p2853
aS'Known\n'
p2854
asS'1.A.4.2.11'
p2855
(lp2856
S'Q9H1D0'
p2857
aS'Inorganic'
p2858
aS'Cations'
p2859
aS'Ca2+'
p2860
aS'29108'
p2861
aS'Known\n'
p2862
asS'1.A.4.2.10'
p2863
(lp2864
S'Q9NQA5'
p2865
aS'Inorganic'
p2866
aS'Cations'
p2867
aS'Ca2+'
p2868
aS'29108'
p2869
aS'Known\n'
p2870
asS'1.A.1.28.3'
p2871
(lp2872
S'Q55815'
p2873
aS'Inorganic'
p2874
aS'Cations'
p2875
aS'K+'
p2876
aS'29103'
p2877
aS'Predicted\n'
p2878
asS'1.A.1.28.2'
p2879
(lp2880
S'C3K1P0'
p2881
aS'Inorganic'
p2882
aS'Cations'
p2883
aS'K+'
p2884
aS'29103'
p2885
aS'Predicted\n'
p2886
asS'1.A.35.3.2'
p2887
(lp2888
S'Q9WZ31'
p2889
aS'Inorganic'
p2890
aS'Cations'
p2891
aS'"Co2+, Mg2+"'
p2892
aS'"48828, 18420"'
p2893
aS'Known'
p2894
aS'Y\n'
p2895
asS'1.A.1.12.4'
p2896
(lp2897
S'M1I9Q3'
p2898
aS'Inorganic'
p2899
aS'Cations'
p2900
aS'K+'
p2901
aS'29103'
p2902
aS'Predicted\n'
p2903
asS'2.A.2.3.7'
p2904
(lp2905
S'Q0HIQ0'
p2906
aS'Organic'
p2907
aS'Sugars'
p2908
aS'Arabinosides'
p2909
aS'22601'
p2910
aS'Predicted\n'
p2911
asS'4.A.6.1.4'
p2912
(lp2913
S'Q9KIQ2'
p2914
aS'Organic'
p2915
aS'Sugars'
p2916
aS'N-acetylgalactosamine'
p2917
aS'28497'
p2918
aS'Known\n'
p2919
asS'1.A.1.12.1'
p2920
(lp2921
S'Q84568'
p2922
aS'Inorganic'
p2923
aS'Cations'
p2924
aS'K+'
p2925
aS'29103'
p2926
aS'Predicted\n'
p2927
asS'1.A.1.12.2'
p2928
(lp2929
S'A7K9J5'
p2930
aS'Inorganic'
p2931
aS'Cations'
p2932
aS'K+'
p2933
aS'29103'
p2934
aS'Predicted\n'
p2935
asS'1.A.1.12.3'
p2936
(lp2937
S'Q8QN67'
p2938
aS'Inorganic'
p2939
aS'Cations'
p2940
aS'K+'
p2941
aS'29103'
p2942
aS'Predicted\n'
p2943
asS'3.A.1.9.1'
p2944
(lp2945
S'P21408'
p2946
aS'Inorganic'
p2947
aS'Cations'
p2948
aS'Fe3+'
p2949
aS'29034'
p2950
aS'Known\n'
p2951
asS'2.A.75.1.2'
p2952
(lp2953
S'P11667'
p2954
aS'Organic'
p2955
aS'Amino acids and derivatives'
p2956
aS'"Lysine, histidine, arginine"'
p2957
aS'"25094, 27570, 29016"'
p2958
aS'Known'
p2959
aS'Y\n'
p2960
asS'3.A.1.103.6'
p2961
(lp2962
S'Q9I3V8'
p2963
aS'Macromolecules'
p2964
aS'Polysaccharides'
p2965
aS'Lipopolysaccharides'
p2966
aS'16412'
p2967
aS'Predicted\n'
p2968
asS'2.A.14.1.1'
p2969
(lp2970
S'P33231'
p2971
aS'Organic'
p2972
aS'Carboxylates'
p2973
aS'"Lactate, glycolate"'
p2974
aS'"24996, 29805"'
p2975
aS'Known'
p2976
aS'Y\n'
p2977
asS'3.A.1.4.8'
p2978
(lp2979
S'P21175'
p2980
aS'Organic'
p2981
aS'Amino acids and derivatives'
p2982
aS'"Leucine, isoleucine, valine, threonine, serine, alanine"'
p2983
aS'"15428, 24898, 27266, 26986, 17822, 16449"'
p2984
aS'Known\n'
p2985
asS'2.A.14.1.2'
p2986
(lp2987
S'Q46839'
p2988
aS'Organic'
p2989
aS'Carboxylates'
p2990
aS'"Lactate, glycolate"'
p2991
aS'"24996, 29805"'
p2992
aS'Known'
p2993
aS'Y\n'
p2994
asS'2.A.19.5.1'
p2995
(lp2996
S'P45394'
p2997
aS'Inorganic'
p2998
aS'Cations'
p2999
aS'Ca2+'
p3000
aS'29108'
p3001
aS'Known'
p3002
aS'Y\n'
p3003
asS'3.A.1.4.2'
p3004
(lp3005
S'Q55387'
p3006
aS'Organic'
p3007
aS'Amino acids and derivatives'
p3008
aS'"Leucine, proline, alanine, serine, glycine, histidine"'
p3009
aS'"25017, 26271, 16449, 17822, 15428, 27570"'
p3010
aS'Predicted\n'
p3011
asS'3.A.1.4.3'
p3012
(lp3013
S'Q9L3M3'
p3014
aS'Organic'
p3015
aS'Amino acids and derivatives'
p3016
aS'"Amino acids, _-aminobutyric acid"'
p3017
aS'"33709, 16865"'
p3018
aS'Predicted\n'
p3019
asS'3.A.1.12.1'
p3020
(lp3021
S'P14175'
p3022
aS'Organic'
p3023
aS'Amines'
p3024
aS'"Glycine betaine, proline"'
p3025
aS'"17750, 26271"'
p3026
aS'Known\n'
p3027
asS'3.A.1.4.1'
p3028
(lp3029
S'P22729'
p3030
aS'Organic'
p3031
aS'Amino acids and derivatives'
p3032
aS'"Leucine, isoleucine, valine, phenylalanine"'
p3033
aS'"25017, 24898, 27266, 28044"'
p3034
aS'Known\n'
p3035
asS'3.A.1.4.6'
p3036
(lp3037
S'Q8YY08'
p3038
aS'Organic'
p3039
aS'Amino acids and derivatives'
p3040
aS'Neutral amino acids'
p3041
aS'33709'
p3042
aS'Predicted\n'
p3043
asS'3.A.3.5.32'
p3044
(lp3045
S'Q9S7J8'
p3046
aS'Inorganic'
p3047
aS'Cations'
p3048
aS'Cu+'
p3049
aS'49552'
p3050
aS'Known\n'
p3051
asS'3.A.1.4.4'
p3052
(lp3053
S'Q9L3S6'
p3054
aS'Organic'
p3055
aS'Amines'
p3056
aS'Urea'
p3057
aS'16199'
p3058
aS'Predicted\n'
p3059
asS'3.A.1.4.5'
p3060
(lp3061
S'Q8NRW1'
p3062
aS'Organic'
p3063
aS'Amines'
p3064
aS'"Urea, thiourea, hydroxyurea"'
p3065
aS'"16199, 36946, 44423"'
p3066
aS'Predicted\n'
p3067
asS'1.A.8.7.1'
p3068
(lp3069
S'P43549'
p3070
aS'Organic'
p3071
aS'Metabolites'
p3072
aS'"Glycerol, urea, boric acid"'
p3073
aS'"17754, 16199, 33118"'
p3074
aS'Known'
p3075
aS'Y\n'
p3076
asS'1.A.1.7.7'
p3077
(lp3078
S'Q9SVV6'
p3079
aS'Inorganic'
p3080
aS'Cations'
p3081
aS'K+'
p3082
aS'29103'
p3083
aS'Known'
p3084
aS'Y\n'
p3085
asS'1.A.1.7.6'
p3086
(lp3087
S'Q9XFR0'
p3088
aS'Inorganic'
p3089
aS'Cations'
p3090
aS'K+'
p3091
aS'29103'
p3092
aS'Known\n'
p3093
asS'1.A.1.7.5'
p3094
(lp3095
S'Q9S6Z8'
p3096
aS'Inorganic'
p3097
aS'Cations'
p3098
aS'K+'
p3099
aS'29103'
p3100
aS'Known\n'
p3101
asS'1.A.1.7.4'
p3102
(lp3103
S'A9QMN9'
p3104
aS'Inorganic'
p3105
aS'Cations'
p3106
aS'K+'
p3107
aS'29103'
p3108
aS'Known\n'
p3109
asS'1.A.1.7.3'
p3110
(lp3111
S'Q8LBL1'
p3112
aS'Inorganic'
p3113
aS'Cations'
p3114
aS'K+'
p3115
aS'29103'
p3116
aS'Predicted\n'
p3117
asS'1.A.1.7.2'
p3118
(lp3119
S'Q6X308'
p3120
aS'Inorganic'
p3121
aS'Cations'
p3122
aS'K+'
p3123
aS'29103'
p3124
aS'Known\n'
p3125
asS'1.A.1.20.1'
p3126
(lp3127
S'Q12809'
p3128
aS'Inorganic'
p3129
aS'Cations'
p3130
aS'K+'
p3131
aS'29103'
p3132
aS'Known\n'
p3133
asS'3.A.11.2.3'
p3134
(lp3135
S'A6XWX0'
p3136
aS'Macromolecules'
p3137
aS'Nucleic acids'
p3138
aS'ssDNA'
p3139
aS'9160'
p3140
aS'Known\n'
p3141
asS'1.A.8.8.15'
p3142
(lp3143
S'B5L019'
p3144
aS'Inorganic'
p3145
aS'Water'
p3146
aS'Water'
p3147
aS'15377'
p3148
aS'Known'
p3149
aS'Y\n'
p3150
asS'2.A.1.1.110'
p3151
(lp3152
S'P39924'
p3153
aS'Organic'
p3154
aS'Sugars'
p3155
aS'Hexoses'
p3156
aS'18133'
p3157
aS'Known\n'
p3158
asS'1.A.16.3.1'
p3159
(lp3160
S'P0AC26'
p3161
aS'Inorganic'
p3162
aS'Anions'
p3163
aS'Nitrite'
p3164
aS'16301'
p3165
aS'Known\n'
p3166
asS'1.A.1.26.1'
p3167
(lp3168
S'Q4YNK7'
p3169
aS'Inorganic'
p3170
aS'Cations'
p3171
aS'K+'
p3172
aS'29103'
p3173
aS'Predicted\n'
p3174
asS'1.A.30.2.1'
p3175
(lp3176
S'P0ABU7'
p3177
aS'Inorganic'
p3178
aS'Cation'
p3179
aS'"H+, Na+"'
p3180
aS'"24636, 29101"'
p3181
aS'Known\n'
p3182
asS'1.A.1.18.1'
p3183
(lp3184
S'Q6VV64'
p3185
aS'Inorganic'
p3186
aS'Cations'
p3187
aS'K+'
p3188
aS'29103'
p3189
aS'Known\n'
p3190
asS'2.A.1.1.65'
p3191
(lp3192
S'A0QZX3'
p3193
aS'Organic'
p3194
aS'Sugars'
p3195
aS'Glucose'
p3196
aS'17234'
p3197
aS'Predicted\n'
p3198
asS'1.A.4.1.4'
p3199
(lp3200
S'Q13507'
p3201
aS'Inorganic'
p3202
aS'Cations'
p3203
aS'Cations'
p3204
aS'36916'
p3205
aS'Known\n'
p3206
asS'1.A.4.1.5'
p3207
(lp3208
S'Q9Y210'
p3209
aS'Inorganic'
p3210
aS'Cations'
p3211
aS'Cations'
p3212
aS'36916'
p3213
aS'Known\n'
p3214
asS'1.A.4.1.7'
p3215
(lp3216
S'Q9UL62'
p3217
aS'Inorganic'
p3218
aS'Cations'
p3219
aS'"Ca2+, Sr2+"'
p3220
aS'"29108, 35104"'
p3221
aS'Known\n'
p3222
asS'3.A.17.1.1'
p3223
(lp3224
S'P08956'
p3225
aS'Macromolecules'
p3226
aS'Nucleic acids'
p3227
aS'DNA'
p3228
aS'9160'
p3229
aS'Known\n'
p3230
asS'1.A.4.1.1'
p3231
(lp3232
S'P19334'
p3233
aS'Inorganic'
p3234
aS'Cations'
p3235
aS'Ca2+'
p3236
aS'29108'
p3237
aS'Known\n'
p3238
asS'1.A.4.1.2'
p3239
(lp3240
S'Q9WVC5'
p3241
aS'Inorganic'
p3242
aS'Cations'
p3243
aS'Ca2+'
p3244
aS'29108'
p3245
aS'Known\n'
p3246
asS'1.A.4.1.3'
p3247
(lp3248
S'P48995'
p3249
aS'Inorganic'
p3250
aS'Cations'
p3251
aS'Ca2+'
p3252
aS'29108'
p3253
aS'Known\n'
p3254
asS'1.B.17.3.5'
p3255
(lp3256
S'P77211'
p3257
aS'Inorganic'
p3258
aS'Cations'
p3259
aS'"Cu+, Ag+"'
p3260
aS'"49552, 49468"'
p3261
aS'Known'
p3262
aS'Y\n'
p3263
asS'1.A.4.1.8'
p3264
(lp3265
S'P48994'
p3266
aS'Inorganic'
p3267
aS'Cations'
p3268
aS'Ca2+'
p3269
aS'29108'
p3270
aS'Known\n'
p3271
asS'1.A.4.1.9'
p3272
(lp3273
S'Q27GV1'
p3274
aS'Inorganic'
p3275
aS'Cations'
p3276
aS'Ca2+'
p3277
aS'29108'
p3278
aS'Known\n'
p3279
asS'2.A.3.12.1'
p3280
(lp3281
S'Q5C8V6'
p3282
aS'Organic'
p3283
aS'Amines'
p3284
aS'"Putrescine, spermidine"'
p3285
aS'"17148, 16610"'
p3286
aS'Known'
p3287
aS'Y\n'
p3288
asS'1.A.1.5.9'
p3289
(lp3290
S'A3EYY6'
p3291
aS'Inorganic'
p3292
aS'Cations'
p3293
aS'K+'
p3294
aS'29103'
p3295
aS'Predicted\n'
p3296
asS'3.A.1.14.22'
p3297
(lp3298
S'Q9S213'
p3299
aS'Organic'
p3300
aS'Siderophores'
p3301
aS'Desferrioxamine E'
p3302
aS'50437'
p3303
aS'Predicted\n'
p3304
asS'3.A.1.14.21'
p3305
(lp3306
S'O68877'
p3307
aS'Organic'
p3308
aS'Siderophores'
p3309
aS'Heme'
p3310
aS'30413'
p3311
aS'Known\n'
p3312
asS'3.A.1.14.20'
p3313
(lp3314
S'Q7W025'
p3315
aS'Organic'
p3316
aS'Siderophores'
p3317
aS'Heme'
p3318
aS'30413'
p3319
aS'Predicted\n'
p3320
asS'1.A.1.5.5'
p3321
(lp3322
S'O65717'
p3323
aS'Inorganic'
p3324
aS'Cations'
p3325
aS'"K+, Rb+, Cs+"'
p3326
aS'"29103, 49847, 49547"'
p3327
aS'Known\n'
p3328
asS'1.A.1.5.4'
p3329
(lp3330
S'Q80XL8'
p3331
aS'Inorganic'
p3332
aS'Cations'
p3333
aS'"Na+, Ca2+"'
p3334
aS'"29101, 29108"'
p3335
aS'Known\n'
p3336
asS'1.A.1.5.7'
p3337
(lp3338
S'Q94AS9'
p3339
aS'Inorganic'
p3340
aS'Cations'
p3341
aS'"K+, Rb+, Cs+"'
p3342
aS'"29103, 49847, 49547"'
p3343
aS'Known\n'
p3344
asS'1.A.1.5.6'
p3345
(lp3346
S'O65718'
p3347
aS'Inorganic'
p3348
aS'Cations'
p3349
aS'"K+, Rb+, Cs+"'
p3350
aS'"29103, 49847, 49547"'
p3351
aS'Known\n'
p3352
asS'1.A.1.5.2'
p3353
(lp3354
S'O88704'
p3355
aS'Inorganic'
p3356
aS'Cations'
p3357
aS'K+'
p3358
aS'29103'
p3359
aS'Known\n'
p3360
asS'1.A.8.3.1'
p3361
(lp3362
S'P60844'
p3363
aS'Inorganic'
p3364
aS'Water'
p3365
aS'Water'
p3366
aS'15377'
p3367
aS'Known\n'
p3368
asS'1.A.1.9.11'
p3369
(lp3370
S'Q9NPC2'
p3371
aS'Inorganic'
p3372
aS'Cations'
p3373
aS'K+'
p3374
aS'29103'
p3375
aS'Known\n'
p3376
asS'1.A.1.9.10'
p3377
(lp3378
S'Q96T55'
p3379
aS'Inorganic'
p3380
aS'Cations'
p3381
aS'K+'
p3382
aS'29103'
p3383
aS'Known\n'
p3384
asS'1.A.1.9.12'
p3385
(lp3386
S'Q9H427'
p3387
aS'Inorganic'
p3388
aS'Cations'
p3389
aS'K+'
p3390
aS'29103'
p3391
aS'Known\n'
p3392
asS'2.A.1.9.3'
p3393
(lp3394
S'Q43650'
p3395
aS'Inorganic'
p3396
aS'Anions'
p3397
aS'Phosphate'
p3398
aS'24838'
p3399
aS'Predicted\n'
p3400
asS'1.A.1.9.9'
p3401
(lp3402
S'Q19907'
p3403
aS'Inorganic'
p3404
aS'Cations'
p3405
aS'K+'
p3406
aS'29103'
p3407
aS'Known\n'
p3408
asS'1.A.8.1.1'
p3409
(lp3410
S'P0AER0'
p3411
aS'Organic'
p3412
aS'Sugar alcohols'
p3413
aS'Glycerol'
p3414
aS'17754'
p3415
aS'Known\n'
p3416
asS'3.A.1.26.8'
p3417
(lp3418
S'O29096'
p3419
aS'Organic'
p3420
aS'Vitamins'
p3421
aS'Biotin'
p3422
aS'15956'
p3423
aS'Predicted\n'
p3424
asS'9.A.8.1.6'
p3425
(lp3426
S'Q7MV19'
p3427
aS'Inorganic'
p3428
aS'Cations'
p3429
aS'Mn2+'
p3430
aS'29035'
p3431
aS'Known\n'
p3432
asS'1.A.1.9.1'
p3433
(lp3434
S'P97438'
p3435
aS'Inorganic'
p3436
aS'Cations'
p3437
aS'K+'
p3438
aS'29103'
p3439
aS'Known\n'
p3440
asS'2.A.1.6.13'
p3441
(lp3442
S'M1Q159'
p3443
aS'Organic'
p3444
aS'Carboxylates'
p3445
aS'"Acetate, monochloroacetate"'
p3446
aS'"30089, 23123"'
p3447
aS'Predicted\n'
p3448
asS'2.A.1.6.12'
p3449
(lp3450
S'P44699'
p3451
aS'Organic'
p3452
aS'Vitamins'
p3453
aS'Thiazole'
p3454
aS'43732'
p3455
aS'Predicted\n'
p3456
asS'1.A.1.9.5'
p3457
(lp3458
S'Q18120'
p3459
aS'Inorganic'
p3460
aS'Cations'
p3461
aS'K+'
p3462
aS'29103'
p3463
aS'Known\n'
p3464
asS'5.A.3.10.1'
p3465
(lp3466
S'Q7WMZ5'
p3467
aS'Inorganic'
p3468
aS'Electrons'
p3469
aS'Electrons'
p3470
aS'10545'
p3471
aS'Known\n'
p3472
asS'1.A.1.9.7'
p3473
(lp3474
S'O17185'
p3475
aS'Inorganic'
p3476
aS'Cations'
p3477
aS'K+'
p3478
aS'29103'
p3479
aS'Predicted\n'
p3480
asS'1.A.1.9.6'
p3481
(lp3482
S'Q96T54'
p3483
aS'Inorganic'
p3484
aS'Cations'
p3485
aS'K+'
p3486
aS'29103'
p3487
aS'Known\n'
p3488
asS'1.A.1.3.3'
p3489
(lp3490
S'Q95V25'
p3491
aS'Inorganic'
p3492
aS'Cations'
p3493
aS'K+'
p3494
aS'29103'
p3495
aS'Known'
p3496
aS'Y\n'
p3497
asS'1.A.1.3.2'
p3498
(lp3499
S'Q62976'
p3500
aS'Inorganic'
p3501
aS'Cations'
p3502
aS'"K+, Ca2+"'
p3503
aS'"29103, 29108"'
p3504
aS'Known'
p3505
aS'Y\n'
p3506
asS'1.A.1.3.1'
p3507
(lp3508
S'Q03720'
p3509
aS'Inorganic'
p3510
aS'Cations'
p3511
aS'K+'
p3512
aS'29103'
p3513
aS'Known'
p3514
aS'Y\n'
p3515
asS'3.A.1.1.43'
p3516
(lp3517
S'Q9FBS5'
p3518
aS'Organic'
p3519
aS'Sugars'
p3520
aS'"Trehalose, melibiose"'
p3521
aS'"27082, 28053"'
p3522
aS'Predicted\n'
p3523
asS'1.A.1.3.7'
p3524
(lp3525
S'C9J9Y7'
p3526
aS'Inorganic'
p3527
aS'Cations'
p3528
aS'K+'
p3529
aS'29103'
p3530
aS'Predicted\n'
p3531
asS'3.A.1.2.9'
p3532
(lp3533
S'Q7BSH4'
p3534
aS'Organic'
p3535
aS'Sugars'
p3536
aS'Rhamnose'
p3537
aS'26546'
p3538
aS'Known\n'
p3539
asS'1.A.1.3.5'
p3540
(lp3541
S'O54982'
p3542
aS'Inorganic'
p3543
aS'Cations'
p3544
aS'K+'
p3545
aS'29103'
p3546
aS'Known\n'
p3547
asS'1.A.1.3.4'
p3548
(lp3549
S'Q9Z258'
p3550
aS'Inorganic'
p3551
aS'Cations'
p3552
aS'K+'
p3553
aS'29103'
p3554
aS'Known\n'
p3555
asS'3.A.1.2.4'
p3556
(lp3557
S'P37388'
p3558
aS'Organic'
p3559
aS'Sugars'
p3560
aS'Xylose'
p3561
aS'18222'
p3562
aS'Known\n'
p3563
asS'3.A.1.2.5'
p3564
(lp3565
S'P25548'
p3566
aS'Organic'
p3567
aS'Sugars'
p3568
aS'"Arabinose, xylose, galactose, glucose, fucose"'
p3569
aS'"22599, 18222, 28260, 17234, 33984"'
p3570
aS'Predicted\n'
p3571
asS'3.A.1.2.6'
p3572
(lp3573
S'P32721'
p3574
aS'Organic'
p3575
aS'Sugars'
p3576
aS'Allose'
p3577
aS'37690'
p3578
aS'Known\n'
p3579
asS'3.A.1.2.7'
p3580
(lp3581
S'Q9F9B2'
p3582
aS'Organic'
p3583
aS'Sugars'
p3584
aS'"Fructose, mannose, ribose"'
p3585
aS'"28757, 37684, 33942"'
p3586
aS'Predicted\n'
p3587
asS'3.A.7.16.1'
p3588
(lp3589
S'Q6MB93'
p3590
aS'Macromolecules'
p3591
aS'Nucleic acids'
p3592
aS'DNA'
p3593
aS'4705'
p3594
aS'Known\n'
p3595
asS'3.A.1.2.2'
p3596
(lp3597
S'P0AAF3'
p3598
aS'Organic'
p3599
aS'Sugars'
p3600
aS'Arabinose'
p3601
aS'22599'
p3602
aS'Known\n'
p3603
asS'1.A.35.1.2'
p3604
(lp3605
S'P0A2R8'
p3606
aS'Inorganic'
p3607
aS'Cations'
p3608
aS'"Mg2+, Co2+, Ni2+"'
p3609
aS'"18420, 48828, 49786"'
p3610
aS'Known\n'
p3611
asS'3.A.10.1.3'
p3612
(lp3613
S'Q2RIS7'
p3614
aS'Inorganic'
p3615
aS'Cations'
p3616
aS'Na+'
p3617
aS'29101'
p3618
aS'Known\n'
p3619
asS'2.A.23.4.1'
p3620
(lp3621
S'P0AGE4'
p3622
aS'Organic'
p3623
aS'Amino acids and derivatives'
p3624
aS'"Serine, threonine"'
p3625
aS'"17822, 26986"'
p3626
aS'Known'
p3627
aS'Y\n'
p3628
asS'5.B.5.1.2'
p3629
(lp3630
S'D5CN26'
p3631
aS'Inorganic'
p3632
aS'Electrons'
p3633
aS'Electrons'
p3634
aS'10545'
p3635
aS'Known\n'
p3636
asS'2.A.40.7.6'
p3637
(lp3638
S'P31466'
p3639
aS'Organic'
p3640
aS'Nucleosides'
p3641
aS'Adenine'
p3642
aS'16708'
p3643
aS'Known'
p3644
aS'Y\n'
p3645
asS'5.B.5.1.1'
p3646
(lp3647
S'Q8EG35'
p3648
aS'Inorganic'
p3649
aS'Electrons'
p3650
aS'Electrons'
p3651
aS'10545'
p3652
aS'Known\n'
p3653
asS'2.A.1.1.123'
p3654
(lp3655
S'A0A075BH68'
p3656
aS'Organic'
p3657
aS'Sugars'
p3658
aS'Glucitol'
p3659
aS'30911'
p3660
aS'Predicted\n'
p3661
asS'2.A.1.1.47'
p3662
(lp3663
S'Q5ERC7'
p3664
aS'Organic'
p3665
aS'Nucleobases'
p3666
aS'Urate'
p3667
aS'27226'
p3668
aS'Predicted\n'
p3669
asS'2.A.40.7.7'
p3670
(lp3671
S'Q46817'
p3672
aS'Organic'
p3673
aS'Nucleobases'
p3674
aS'"Guanine, hypoxanthine"'
p3675
aS'"16235, 17368"'
p3676
aS'Known'
p3677
aS'Y\n'
p3678
asS'2.A.1.1.45'
p3679
(lp3680
S'Q8L6Z8'
p3681
aS'Organic'
p3682
aS'Sugars'
p3683
aS'Glucose'
p3684
aS'17234'
p3685
aS'Known\n'
p3686
asS'2.A.1.1.122'
p3687
(lp3688
S'A0A075BFV8'
p3689
aS'Organic'
p3690
aS'Sugars'
p3691
aS'Glucitol'
p3692
aS'30911'
p3693
aS'Known\n'
p3694
asS'2.A.1.1.21'
p3695
(lp3696
S'O74969'
p3697
aS'Organic'
p3698
aS'Sugars'
p3699
aS'Hexoses'
p3700
aS'18133'
p3701
aS'Known\n'
p3702
asS'2.A.1.1.20'
p3703
(lp3704
S'Q01440'
p3705
aS'Organic'
p3706
aS'Sugar alcohols'
p3707
aS'Myo-inositol'
p3708
aS'17268'
p3709
aS'Predicted\n'
p3710
asS'2.A.1.1.23'
p3711
(lp3712
S'Q92339'
p3713
aS'Organic'
p3714
aS'Sugar alcohols'
p3715
aS'Gluconate'
p3716
aS'24265'
p3717
aS'Known\n'
p3718
asS'2.A.1.1.22'
p3719
(lp3720
S'O74849'
p3721
aS'Organic'
p3722
aS'Sugars'
p3723
aS'Hexoses'
p3724
aS'18133'
p3725
aS'Known\n'
p3726
asS'2.A.1.1.25'
p3727
(lp3728
S'Q96QE2'
p3729
aS'Organic'
p3730
aS'Sugar alcohols'
p3731
aS'Inositol'
p3732
aS'17268'
p3733
aS'Known'
p3734
aS'Y\n'
p3735
asS'2.A.1.1.24'
p3736
(lp3737
S'O97467'
p3738
aS'Organic'
p3739
aS'Sugars'
p3740
aS'Hexoses'
p3741
aS'18133'
p3742
aS'Predicted\n'
p3743
asS'2.A.1.1.27'
p3744
(lp3745
S'P42417'
p3746
aS'Organic'
p3747
aS'Sugar alcohols'
p3748
aS'Myo-inositol'
p3749
aS'17268'
p3750
aS'Predicted\n'
p3751
asS'1.A.1.10.7'
p3752
(lp3753
S'P35498'
p3754
aS'Inorganic'
p3755
aS'Cations'
p3756
aS'Na+'
p3757
aS'29101'
p3758
aS'Known\n'
p3759
asS'2.A.1.1.29'
p3760
(lp3761
S'P11168'
p3762
aS'Organic'
p3763
aS'"Sugars, sugar derivatives"'
p3764
aS'"Glucose, glucosamine"'
p3765
aS'"17234, 5417"'
p3766
aS'Known\n'
p3767
asS'3.A.7.14.1'
p3768
(lp3769
S'Q9AL12'
p3770
aS'Macromolecules'
p3771
aS'Nucleic acids'
p3772
aS'DNA'
p3773
aS'4705'
p3774
aS'Known\n'
p3775
asS'2.A.47.2.2'
p3776
(lp3777
S'P27514'
p3778
aS'Inorganic'
p3779
aS'Anions'
p3780
aS'"Phosphate, selenite"'
p3781
aS'"18367, 18212"'
p3782
aS'Known'
p3783
aS'Y\n'
p3784
asS'1.A.30.2.2'
p3785
(lp3786
S'P0ABU9'
p3787
aS'Inorganic'
p3788
aS'Cation'
p3789
aS'"H+, Na+"'
p3790
aS'"24636, 29101"'
p3791
aS'Known\n'
p3792
asS'2.A.49.6.3'
p3793
(lp3794
S'Q8GX93'
p3795
aS'Inorganic'
p3796
aS'Anions'
p3797
aS'Cl-'
p3798
aS'17996'
p3799
aS'Known'
p3800
aS'Y\n'
p3801
asS'4.A.2.1.9'
p3802
(lp3803
S'Q1R4S9'
p3804
aS'Organic'
p3805
aS'Sugars'
p3806
aS'"Tagatose, psicose, sorbose"'
p3807
aS'"33954, 33951, 27922"'
p3808
aS'Predicted\n'
p3809
asS'3.A.1.14.1'
p3810
(lp3811
S'P15028'
p3812
aS'Organic'
p3813
aS'Siderophores'
p3814
aS'Fe3+-citrate'
p3815
aS'4991'
p3816
aS'Known'
p3817
aS'Y\n'
p3818
asS'3.A.1.27.4'
p3819
(lp3820
S'Q0SFA1'
p3821
aS'Macromolecules'
p3822
aS'Lipids'
p3823
aS'Cholesterol'
p3824
aS'16113'
p3825
aS'Predicted\n'
p3826
asS'2.A.1.1.40'
p3827
(lp3828
S'Q64L87'
p3829
aS'Organic'
p3830
aS'Sugars'
p3831
aS'Xylose'
p3832
aS'18222'
p3833
aS'Predicted\n'
p3834
asS'3.A.7.14.2'
p3835
(lp3836
S'Q15HU3'
p3837
aS'Macromolecules'
p3838
aS'Nucleic acids'
p3839
aS'DNA'
p3840
aS'4705'
p3841
aS'Known\n'
p3842
asS'2.A.42.1.1'
p3843
(lp3844
S'P0AAD4'
p3845
aS'Organic'
p3846
aS'Amino acids and derivatives'
p3847
aS'Tyrosine'
p3848
aS'18186'
p3849
aS'Known'
p3850
aS'Y\n'
p3851
asS'2.A.42.1.2'
p3852
(lp3853
S'P0AAD2'
p3854
aS'Organic'
p3855
aS'Amino acids and derivatives'
p3856
aS'"Tryptophan, indole"'
p3857
aS'"27897, 35581"'
p3858
aS'Known'
p3859
aS'Y\n'
p3860
asS'2.A.42.1.3'
p3861
(lp3862
S'P23173'
p3863
aS'Organic'
p3864
aS'Amino acids and derivatives'
p3865
aS'Tryptophan'
p3866
aS'27897'
p3867
aS'Known'
p3868
aS'Y\n'
p3869
asS'2.A.25.1.5'
p3870
(lp3871
S'Q45068'
p3872
aS'Organic'
p3873
aS'Amino acids and derivatives'
p3874
aS'Alanine'
p3875
aS'16449'
p3876
aS'Predicted'
p3877
aS'Y\n'
p3878
asS'3.A.1.5.27'
p3879
(lp3880
S'P45096'
p3881
aS'Organic'
p3882
aS'Peptides'
p3883
aS'Glutathione'
p3884
aS'16856'
p3885
aS'Known\n'
p3886
asS'3.A.7.7.1'
p3887
(lp3888
S'Q52273'
p3889
aS'Macromolecules'
p3890
aS'Nucleic acids'
p3891
aS'DNA'
p3892
aS'4705'
p3893
aS'Known\n'
p3894
asS'3.A.1.5.25'
p3895
(lp3896
S'Q9CIL1'
p3897
aS'Organic'
p3898
aS'Peptides'
p3899
aS'"Peptides, oligopeptides"'
p3900
aS'"16670, 25676"'
p3901
aS'Predicted\n'
p3902
asS'3.A.1.5.22'
p3903
(lp3904
S'Q5V9S2'
p3905
aS'Organic'
p3906
aS'Peptides'
p3907
aS'Peptides'
p3908
aS'16670'
p3909
aS'Known\n'
p3910
asS'3.A.1.1.44'
p3911
(lp3912
S'Q9KZ08'
p3913
aS'Organic'
p3914
aS'Sugars'
p3915
aS'"Maltose, maltodextrin"'
p3916
aS'"17306, 25140"'
p3917
aS'Predicted\n'
p3918
asS'3.A.1.5.20'
p3919
(lp3920
S'P42065'
p3921
aS'Organic'
p3922
aS'Peptides'
p3923
aS'Oligopeptides'
p3924
aS'25676'
p3925
aS'Known\n'
p3926
asS'3.A.1.5.21'
p3927
(lp3928
S'P33913'
p3929
aS'Organic'
p3930
aS'Peptides'
p3931
aS'Microcin C'
p3932
aS'82754'
p3933
aS'Known\n'
p3934
asS'3.A.1.5.28'
p3935
(lp3936
S'Q0P848'
p3937
aS'Inorganic'
p3938
aS'Cations'
p3939
aS'Ni2+'
p3940
aS'49786'
p3941
aS'Predicted\n'
p3942
asS'3.A.1.5.23'
p3943
(lp3944
S'Q9F9T7'
p3945
aS'Organic'
p3946
aS'Carboxylates'
p3947
aS'EDTA'
p3948
aS'63131'
p3949
aS'Known\n'
p3950
asS'2.A.1.1.116'
p3951
(lp3952
S'C4B4V9'
p3953
aS'Organic'
p3954
aS'Sugars'
p3955
aS'"Arabinose, xylose"'
p3956
aS'"22599, 18222"'
p3957
aS'Predicted\n'
p3958
asS'2.A.1.5.4'
p3959
(lp3960
S'P96517'
p3961
aS'Organic'
p3962
aS'Sugars'
p3963
aS'"Melibiose, lactose"'
p3964
aS'"28053, 17716"'
p3965
aS'Predicted\n'
p3966
asS'2.A.29.5.1'
p3967
(lp3968
S'P10566'
p3969
aS'Inorganic'
p3970
aS'Cations'
p3971
aS'Fe2+'
p3972
aS'29033'
p3973
aS'Known'
p3974
aS'Y\n'
p3975
asS'1.B.35.1.7'
p3976
(lp3977
S'A6TDJ4'
p3978
aS'Organic'
p3979
aS'Drugs'
p3980
aS'Carbapenem'
p3981
aS'46765'
p3982
aS'Predicted\n'
p3983
asS'2.A.107.1.1'
p3984
(lp3985
S'P76264'
p3986
aS'Inorganic'
p3987
aS'Cations'
p3988
aS'Mn2+'
p3989
aS'29035'
p3990
aS'Known'
p3991
aS'Y\n'
p3992
asS'2.A.29.5.2'
p3993
(lp3994
S'P23500'
p3995
aS'Inorganic'
p3996
aS'Cations'
p3997
aS'Fe2+'
p3998
aS'29033'
p3999
aS'Known'
p4000
aS'Y\n'
p4001
asS'2.A.3.4.1'
p4002
(lp4003
S'P19807'
p4004
aS'Organic'
p4005
aS'Amines'
p4006
aS'Choline'
p4007
aS'15354'
p4008
aS'Known\n'
p4009
asS'2.A.3.4.3'
p4010
(lp4011
S'P32837'
p4012
aS'Organic'
p4013
aS'Amines'
p4014
aS'"_-aminobutyric acid, putrescine, polyamines"'
p4015
aS'"16865, 17148, 88061"'
p4016
aS'Known\n'
p4017
asS'2.A.3.4.2'
p4018
(lp4019
S'Q9Y860'
p4020
aS'Organic'
p4021
aS'Amines'
p4022
aS'_-aminobutyric acid'
p4023
aS'16865'
p4024
aS'Predicted\n'
p4025
asS'2.A.3.4.5'
p4026
(lp4027
S'P36029'
p4028
aS'Organic'
p4029
aS'Amines'
p4030
aS'"Putrescine, spermidine, spermine"'
p4031
aS'"17148, 16610, 15746"'
p4032
aS'Known\n'
p4033
asS'2.A.3.4.7'
p4034
(lp4035
S'Q9KZF1'
p4036
aS'Organic'
p4037
aS'Amino acids and derivatives'
p4038
aS'Amino acids'
p4039
aS'33709'
p4040
aS'Predicted\n'
p4041
asS'2.A.3.4.6'
p4042
(lp4043
S'Q9UT18'
p4044
aS'Organic'
p4045
aS'Vitamins'
p4046
aS'Thiamine'
p4047
aS'26948'
p4048
aS'Known\n'
p4049
asS'3.A.1.1.45'
p4050
(lp4051
S'Q8NMV1'
p4052
aS'Organic'
p4053
aS'Sugars'
p4054
aS'Maltose'
p4055
aS'17306'
p4056
aS'Predicted\n'
p4057
asS'3.A.1.107.3'
p4058
(lp4059
S'Q8XE58'
p4060
aS'Organic'
p4061
aS'Siderophores'
p4062
aS'Heme'
p4063
aS'30413'
p4064
aS'Known\n'
p4065
asS'2.A.1.1.49'
p4066
(lp4067
S'Q39228'
p4068
aS'Organic'
p4069
aS'Sugars'
p4070
aS'Sugars'
p4071
aS'16646'
p4072
aS'Known\n'
p4073
asS'2.A.1.1.112'
p4074
(lp4075
S'Q9P3U6'
p4076
aS'Organic'
p4077
aS'Sugars'
p4078
aS'Glucose'
p4079
aS'17234'
p4080
aS'Known\n'
p4081
asS'3.A.3.3.8'
p4082
(lp4083
S'Q9SH76'
p4084
aS'Inorganic'
p4085
aS'Cations'
p4086
aS'H+'
p4087
aS'24636'
p4088
aS'Known\n'
p4089
asS'3.A.3.1.1'
p4090
(lp4091
S'Q58I19'
p4092
aS'Inorganic'
p4093
aS'Cations'
p4094
aS'"Na+, K+"'
p4095
aS'"29101, 29103"'
p4096
aS'Known\n'
p4097
asS'2.A.1.1.98'
p4098
(lp4099
S'Q9FRL3'
p4100
aS'Organic'
p4101
aS'Sugars'
p4102
aS'Sugars'
p4103
aS'16646'
p4104
aS'Known\n'
p4105
asS'1.A.8.10.10'
p4106
(lp4107
S'Q41951'
p4108
aS'Inorganic'
p4109
aS'Water'
p4110
aS'Water'
p4111
aS'15377'
p4112
aS'Known'
p4113
aS'Y\n'
p4114
asS'2.A.1.1.97'
p4115
(lp4116
S'O04036'
p4117
aS'Organic'
p4118
aS'Sugars'
p4119
aS'Sugars'
p4120
aS'16646'
p4121
aS'Known\n'
p4122
asS'2.A.1.1.90'
p4123
(lp4124
S'Q8TDB8'
p4125
aS'Organic'
p4126
aS'Sugars'
p4127
aS'Glucose'
p4128
aS'17234'
p4129
aS'Known\n'
p4130
asS'2.A.1.1.91'
p4131
(lp4132
S'P11169'
p4133
aS'Organic'
p4134
aS'Sugars'
p4135
aS'Glucose'
p4136
aS'17234'
p4137
aS'Known\n'
p4138
asS'3.A.1.1.17'
p4139
(lp4140
S'Q9R9Q7'
p4141
aS'Organic'
p4142
aS'Sugars'
p4143
aS'"Trehalose, maltose, sucrose"'
p4144
aS'"27082, 17306, 17992"'
p4145
aS'Predicted\n'
p4146
asS'3.A.1.1.46'
p4147
(lp4148
S'P77481'
p4149
aS'Organic'
p4150
aS'Sugars'
p4151
aS'Glucosides'
p4152
aS'71352'
p4153
aS'Predicted\n'
p4154
asS'2.A.7.16.1'
p4155
(lp4156
S'Q96A29'
p4157
aS'Organic'
p4158
aS'Sugar derviatives'
p4159
aS'GDP-fucose'
p4160
aS'64608'
p4161
aS'Known'
p4162
aS'Y\n'
p4163
asS'2.A.15.2.2'
p4164
(lp4165
S'B4EY22'
p4166
aS'Organic'
p4167
aS'Amines'
p4168
aS'"Carnitine, gamma-butyrobetaine"'
p4169
aS'"17126, 16244"'
p4170
aS'Known'
p4171
aS'Y\n'
p4172
asS'2.A.15.2.1'
p4173
(lp4174
S'P31553'
p4175
aS'Organic'
p4176
aS'Amines'
p4177
aS'"Carnitine, gamma-butyrobetaine"'
p4178
aS'"17126, 16244"'
p4179
aS'Known'
p4180
aS'Y\n'
p4181
asS'1.A.1.5.21'
p4182
(lp4183
S'Q6JV75'
p4184
aS'Inorganic'
p4185
aS'Cations'
p4186
aS'K+'
p4187
aS'29103'
p4188
aS'Predicted\n'
p4189
asS'3.A.1.5.29'
p4190
(lp4191
S'Q9WXR6'
p4192
aS'Organic'
p4193
aS'Sugars'
p4194
aS'Xylanoligosaccharides'
p4195
aS'71299'
p4196
aS'Predicted\n'
p4197
asS'3.A.3.7.1'
p4198
(lp4199
S'P36937'
p4200
aS'Inorganic'
p4201
aS'Cations'
p4202
aS'K+'
p4203
aS'29103'
p4204
aS'Known\n'
p4205
asS'3.A.1.12.2'
p4206
(lp4207
S'P46922'
p4208
aS'Organic'
p4209
aS'Amino acids and derivatives'
p4210
aS'"Glycine betaine, dimethylsulfonioacetate, dimethylsulfonioproprionate"'
p4211
aS'"17750, 16471, 16457"'
p4212
aS'Known\n'
p4213
asS'2.A.47.4.4'
p4214
(lp4215
S'A8IHV5'
p4216
aS'Inorganic'
p4217
aS'"Cations, anions"'
p4218
aS'"Na+, sulfate"'
p4219
aS'"29101, 16189"'
p4220
aS'Known'
p4221
aS'Y\n'
p4222
asS'2.A.47.4.5'
p4223
(lp4224
S'Q9K7H7'
p4225
aS'Inorganic'
p4226
aS'"Cations, anions"'
p4227
aS'"Na+, sulfate"'
p4228
aS'"29101, 16189"'
p4229
aS'Known'
p4230
aS'Y\n'
p4231
asS'3.A.1.12.3'
p4232
(lp4233
S'Q45462'
p4234
aS'Organic'
p4235
aS'Amines'
p4236
aS'Choline'
p4237
aS'15354'
p4238
aS'Known\n'
p4239
asS'2.A.7.7.2'
p4240
(lp4241
S'P27844'
p4242
aS'Organic'
p4243
aS'Drugs'
p4244
aS'Chloramphenicol'
p4245
aS'17698'
p4246
aS'Predicted\n'
p4247
asS'1.A.1.2.20'
p4248
(lp4249
S'Q8I4B0'
p4250
aS'Inorganic'
p4251
aS'Cations'
p4252
aS'K+'
p4253
aS'29103'
p4254
aS'Known\n'
p4255
asS'5.A.3.3.2'
p4256
(lp4257
S'P18777'
p4258
aS'Inorganic'
p4259
aS'Electrons'
p4260
aS'Electrons'
p4261
aS'10545'
p4262
aS'Known\n'
p4263
asS'3.A.1.1.16'
p4264
(lp4265
S'Q8TZQ3'
p4266
aS'Organic'
p4267
aS'Sugars'
p4268
aS'Maltooligosaccharides'
p4269
aS'17593'
p4270
aS'Predicted\n'
p4271
asS'3.A.1.1.47'
p4272
(lp4273
S'A5LBQ4'
p4274
aS'Organic'
p4275
aS'Sugars'
p4276
aS'Fucose'
p4277
aS'33984'
p4278
aS'Predicted\n'
p4279
asS'3.A.1.3.11'
p4280
(lp4281
S'O50183'
p4282
aS'Organic'
p4283
aS'Amino acids and derivatives'
p4284
aS'"Arginine, ornithine"'
p4285
aS'"29016, 18257"'
p4286
aS'Predicted\n'
p4287
asS'2.A.1.2.21'
p4288
(lp4289
S'P69367'
p4290
aS'Organic'
p4291
aS'Drugs'
p4292
aS'"Norfloxacin, enoxacin"'
p4293
aS'"100246, 157175"'
p4294
aS'Known\n'
p4295
asS'2.A.1.2.22'
p4296
(lp4297
S'P31462'
p4298
aS'Organic'
p4299
aS'Drugs'
p4300
aS'Chloramphenicol'
p4301
aS'17698'
p4302
aS'Known\n'
p4303
asS'3.A.1.3.12'
p4304
(lp4305
S'P73721'
p4306
aS'Organic'
p4307
aS'Amino acids and derivatives'
p4308
aS'"Arginine, lysine, histidine, glutamine"'
p4309
aS'"29016, 25049, 27570, 28300"'
p4310
aS'Predicted\n'
p4311
asS'3.A.1.3.15'
p4312
(lp4313
S'P54537'
p4314
aS'Organic'
p4315
aS'Amino acids and derivatives'
p4316
aS'Arginine'
p4317
aS'29016'
p4318
aS'Predicted\n'
p4319
asS'3.A.1.3.14'
p4320
(lp4321
S'P42200'
p4322
aS'Organic'
p4323
aS'Amino acids and derivatives'
p4324
aS'Cystine'
p4325
aS'17376'
p4326
aS'Predicted\n'
p4327
asS'3.A.1.3.17'
p4328
(lp4329
S'Q8YSA2'
p4330
aS'Organic'
p4331
aS'Amino acids and derivatives'
p4332
aS'"Arginine, lysine, histidine"'
p4333
aS'"29016, 25094, 27570"'
p4334
aS'Predicted\n'
p4335
asS'3.A.1.3.16'
p4336
(lp4337
S'Q0P9X8'
p4338
aS'Organic'
p4339
aS'Amino acids and derivatives'
p4340
aS'"Glutamate, aspartate"'
p4341
aS'"29987, 29995"'
p4342
aS'Known\n'
p4343
asS'3.A.1.3.19'
p4344
(lp4345
S'Q88NY5'
p4346
aS'Organic'
p4347
aS'Amino acids and derivatives'
p4348
aS'"Glutamate, glutamine, aspartate, asparagine"'
p4349
aS'"29987, 28300, 29995, 22653"'
p4350
aS'Predicted\n'
p4351
asS'3.A.1.3.18'
p4352
(lp4353
S'Q8YPM9'
p4354
aS'Organic'
p4355
aS'Amino acids and derivatives'
p4356
aS'Amino acids'
p4357
aS'33709'
p4358
aS'Predicted\n'
p4359
asS'2.A.1.1.119'
p4360
(lp4361
S'A2R3H2'
p4362
aS'Organic'
p4363
aS'Sugars'
p4364
aS'Galacturonate'
p4365
aS'24175'
p4366
aS'Predicted\n'
p4367
asS'2.A.5.4.12'
p4368
(lp4369
S'P40544'
p4370
aS'Inorganic'
p4371
aS'Cations'
p4372
aS'Zn2+'
p4373
aS'29105'
p4374
aS'Known'
p4375
aS'Y\n'
p4376
asS'3.A.1.12.7'
p4377
(lp4378
S'Q92N36'
p4379
aS'Organic'
p4380
aS'Amines'
p4381
aS'Choline'
p4382
aS'15354'
p4383
aS'Predicted\n'
p4384
asS'2.A.1.1.103'
p4385
(lp4386
S'Q0WW9'
p4387
aS'Organic'
p4388
aS'Sugars'
p4389
aS'Xylose'
p4390
aS'18222'
p4391
aS'Known'
p4392
aS'Y\n'
p4393
asS'2.A.1.1.102'
p4394
(lp4395
S'Q56ZZ7'
p4396
aS'Organic'
p4397
aS'Sugars'
p4398
aS'Glucose'
p4399
aS'17234'
p4400
aS'Known\n'
p4401
asS'2.A.1.1.105'
p4402
(lp4403
S'P54862'
p4404
aS'Organic'
p4405
aS'Sugars'
p4406
aS'Hexoses'
p4407
aS'18133'
p4408
aS'Known\n'
p4409
asS'2.A.1.3.17'
p4410
(lp4411
S'P76269'
p4412
aS'Organic'
p4413
aS'Drugs'
p4414
aS'Trimethoprim'
p4415
aS'45924'
p4416
aS'Predicted\n'
p4417
asS'2.A.1.1.107'
p4418
(lp4419
S'P54854'
p4420
aS'Organic'
p4421
aS'Sugars'
p4422
aS'Hexoses'
p4423
aS'18133'
p4424
aS'Known\n'
p4425
asS'3.A.3.5.5'
p4426
(lp4427
S'Q59385'
p4428
aS'Inorganic'
p4429
aS'Cations'
p4430
aS'"Cu+, Ag+"'
p4431
aS'"49552, 49468"'
p4432
aS'Known\n'
p4433
asS'1.A.2.1.3'
p4434
(lp4435
S'P48544'
p4436
aS'Inorganic'
p4437
aS'Cations'
p4438
aS'K+'
p4439
aS'29103'
p4440
aS'Known\n'
p4441
asS'1.A.2.1.1'
p4442
(lp4443
S'P48048'
p4444
aS'Inorganic'
p4445
aS'Cations'
p4446
aS'K+'
p4447
aS'29103'
p4448
aS'Known\n'
p4449
asS'1.A.2.1.6'
p4450
(lp4451
S'Q5R205'
p4452
aS'Inorganic'
p4453
aS'Cations'
p4454
aS'K+'
p4455
aS'29103'
p4456
aS'Predicted\n'
p4457
asS'1.A.2.1.7'
p4458
(lp4459
S'P70673'
p4460
aS'Inorganic'
p4461
aS'Cations'
p4462
aS'K+'
p4463
aS'29103'
p4464
aS'Known\n'
p4465
asS'3.A.3.5.3'
p4466
(lp4467
S'P35670'
p4468
aS'Inorganic'
p4469
aS'Cations'
p4470
aS'"Cu+, Ag+, Fe2+"'
p4471
aS'"49552, 49468, 29033"'
p4472
aS'Known\n'
p4473
asS'4.A.1.1.9'
p4474
(lp4475
S'P20166'
p4476
aS'Organic'
p4477
aS'Sugars'
p4478
aS'Glucose'
p4479
aS'17234'
p4480
aS'Known\n'
p4481
asS'1.A.1.5.15'
p4482
(lp4483
S'D2VJB4'
p4484
aS'Inorganic'
p4485
aS'Cations'
p4486
aS'K+'
p4487
aS'29103'
p4488
aS'Predicted\n'
p4489
asS'3.A.11.1.3'
p4490
(lp4491
S'F6DIG6'
p4492
aS'Macromolecules'
p4493
aS'Nucleic acids'
p4494
aS'ssDNA'
p4495
aS'9160'
p4496
aS'Known\n'
p4497
asS'1.A.1.5.17'
p4498
(lp4499
S'G0GA88'
p4500
aS'Inorganic'
p4501
aS'Cations'
p4502
aS'K+'
p4503
aS'29103'
p4504
aS'Predicted\n'
p4505
asS'1.A.1.5.16'
p4506
(lp4507
S'Q10V66'
p4508
aS'Inorganic'
p4509
aS'Cations'
p4510
aS'K+'
p4511
aS'29103'
p4512
aS'Predicted\n'
p4513
asS'1.A.1.5.10'
p4514
(lp4515
S'Q9Y3Q4'
p4516
aS'Inorganic'
p4517
aS'Cations'
p4518
aS'"K+, Na+"'
p4519
aS'"29103, 29101"'
p4520
aS'Known\n'
p4521
asS'2.A.27.1.1'
p4522
(lp4523
S'P0AER8'
p4524
aS'Organic'
p4525
aS'Amino acids and derivatives'
p4526
aS'Glutamate'
p4527
aS'29987'
p4528
aS'Known'
p4529
aS'Y\n'
p4530
asS'1.A.1.4.1'
p4531
(lp4532
S'Q38998'
p4533
aS'Inorganic'
p4534
aS'Cations'
p4535
aS'K+'
p4536
aS'29103'
p4537
aS'Known\n'
p4538
asS'2.A.3.6.3'
p4539
(lp4540
S'Q58026'
p4541
aS'Organic'
p4542
aS'Amino acids and derivatives'
p4543
aS'Amino acids'
p4544
aS'33709'
p4545
aS'Predicted\n'
p4546
asS'2.A.71.1.4'
p4547
(lp4548
S'Q07492'
p4549
aS'Organic'
p4550
aS'Vitamins'
p4551
aS'"Folate, biopterin"'
p4552
aS'"62501, 15373"'
p4553
aS'Known'
p4554
aS'Y\n'
p4555
asS'2.A.3.6.1'
p4556
(lp4557
S'O28661'
p4558
aS'Organic'
p4559
aS'Amino acids and derivatives'
p4560
aS'Amino acids'
p4561
aS'33709'
p4562
aS'Predicted\n'
p4563
asS'3.A.1.103.1'
p4564
(lp4565
S'Q48476'
p4566
aS'Macromolecules'
p4567
aS'Polysaccharides'
p4568
aS'Lipopolysaccharides'
p4569
aS'16412'
p4570
aS'Predicted\n'
p4571
asS'3.A.1.12.8'
p4572
(lp4573
S'Q93A35'
p4574
aS'Organic'
p4575
aS'Amino acids and derivatives'
p4576
aS'"Glycine betaine, proline"'
p4577
aS'"17750, 26271"'
p4578
aS'Predicted\n'
p4579
asS'2.A.1.1.41'
p4580
(lp4581
S'O52733'
p4582
aS'Organic'
p4583
aS'Sugars'
p4584
aS'Xylose'
p4585
aS'18222'
p4586
aS'Predicted\n'
p4587
asS'1.A.1.2.22'
p4588
(lp4589
S'Q26094'
p4590
aS'Inorganic'
p4591
aS'Cations'
p4592
aS'K+'
p4593
aS'29103'
p4594
aS'Known\n'
p4595
asS'3.A.1.12.9'
p4596
(lp4597
S'Q8U4S5'
p4598
aS'Organic'
p4599
aS'Amino acids and derivatives'
p4600
aS'Glycine betaine'
p4601
aS'17750'
p4602
aS'Predicted\n'
p4603
asS'3.A.1.14.18'
p4604
(lp4605
S'Q32AX9'
p4606
aS'Organic'
p4607
aS'Siderophores'
p4608
aS'Heme'
p4609
aS'30413'
p4610
aS'Known'
p4611
aS'Y\n'
p4612
asS'2.A.2.1.1'
p4613
(lp4614
S'A7ZUZ0'
p4615
aS'Organic'
p4616
aS'Sugars'
p4617
aS'Melibiose'
p4618
aS'28053'
p4619
aS'Predicted\n'
p4620
asS'3.A.1.1.14'
p4621
(lp4622
S'Q97UF5'
p4623
aS'Organic'
p4624
aS'Sugars'
p4625
aS'"Arabinose, fructose, xylose"'
p4626
aS'"22599, 28757, 18222"'
p4627
aS'Predicted\n'
p4628
asS'3.A.1.15.17'
p4629
(lp4630
S'Q6MI07'
p4631
aS'Inorganic'
p4632
aS'Cations'
p4633
aS'"Zn2+, Mn2+"'
p4634
aS'"29105, 29035"'
p4635
aS'Predicted\n'
p4636
asS'3.A.1.1.49'
p4637
(lp4638
S'O30494'
p4639
aS'Organic'
p4640
aS'Sugar alcohols'
p4641
aS'"Mannitol, glucitol, arabitinol"'
p4642
aS'"29864, 30911, 22605"'
p4643
aS'Predicted\n'
p4644
asS'3.A.1.15.11'
p4645
(lp4646
S'O34966'
p4647
aS'Inorganic'
p4648
aS'Cations'
p4649
aS'Zn2+'
p4650
aS'29105'
p4651
aS'Known\n'
p4652
asS'3.A.1.13.2'
p4653
(lp4654
S'A9WCZ7'
p4655
aS'Organic'
p4656
aS'Vitamins'
p4657
aS'Cobalamin'
p4658
aS'30411'
p4659
aS'Predicted\n'
p4660
asS'3.A.1.15.13'
p4661
(lp4662
S'B2J0B7'
p4663
aS'Inorganic'
p4664
aS'Cations'
p4665
aS'Zn2+'
p4666
aS'29105'
p4667
aS'Predicted\n'
p4668
asS'3.A.1.15.12'
p4669
(lp4670
S'O84073'
p4671
aS'Inorganic'
p4672
aS'Cations'
p4673
aS'Fe2+'
p4674
aS'29033'
p4675
aS'Predicted\n'
p4676
asS'3.A.1.15.9'
p4677
(lp4678
S'Q92LL5'
p4679
aS'Inorganic'
p4680
aS'Cations'
p4681
aS'"Mn2+, Fe2+"'
p4682
aS'"29035, 29033"'
p4683
aS'Predicted\n'
p4684
asS'3.A.1.15.8'
p4685
(lp4686
S'P96119'
p4687
aS'Inorganic'
p4688
aS'Cations'
p4689
aS'"Mn2+, Zn2+, Fe2+"'
p4690
aS'"29033, 29105, 29033"'
p4691
aS'Predicted\n'
p4692
asS'3.A.1.15.1'
p4693
(lp4694
S'Q55282'
p4695
aS'Inorganic'
p4696
aS'Cations'
p4697
aS'Mn2+'
p4698
aS'29035'
p4699
aS'Known\n'
p4700
asS'5.B.3.1.1'
p4701
(lp4702
S'Q74A86'
p4703
aS'Inorganic'
p4704
aS'Electrons'
p4705
aS'Electrons'
p4706
aS'10545'
p4707
aS'Known\n'
p4708
asS'2.A.96.1.1'
p4709
(lp4710
S'P0AC98'
p4711
aS'Organic'
p4712
aS'Carboxylates'
p4713
aS'"Acetate, succinate"'
p4714
aS'"30089, 26806"'
p4715
aS'Known'
p4716
aS'Y\n'
p4717
asS'3.A.1.15.2'
p4718
(lp4719
S'P42364'
p4720
aS'Inorganic'
p4721
aS'Cations'
p4722
aS'"Mn2+, Zn2+"'
p4723
aS'"29035, 29105"'
p4724
aS'Known\n'
p4725
asS'3.A.1.15.5'
p4726
(lp4727
S'P39172'
p4728
aS'Inorganic'
p4729
aS'Cations'
p4730
aS'Zn2+'
p4731
aS'29105'
p4732
aS'Known'
p4733
aS'Y\n'
p4734
asS'3.A.1.15.4'
p4735
(lp4736
S'Q56955'
p4737
aS'Inorganic'
p4738
aS'Cations'
p4739
aS'"Fe2+, Mn2+"'
p4740
aS'"29033, 29035"'
p4741
aS'Known\n'
p4742
asS'3.A.1.15.7'
p4743
(lp4744
S'Q9XCR9'
p4745
aS'Inorganic'
p4746
aS'Cations'
p4747
aS'"Mn2+, Fe2+"'
p4748
aS'"29035, 29033"'
p4749
aS'Known'
p4750
aS'Y\n'
p4751
asS'3.A.1.15.6'
p4752
(lp4753
S'Q9RNI9'
p4754
aS'Inorganic'
p4755
aS'Cations'
p4756
aS'"Fe2+, Zn2+, Cu2+"'
p4757
aS'"29033, 29105, 29036"'
p4758
aS'Known\n'
p4759
asS'3.A.1.25.4'
p4760
(lp4761
S'A2RMJ9'
p4762
aS'Organic'
p4763
aS'Vitamins'
p4764
aS'Biotin'
p4765
aS'15956'
p4766
aS'Known\n'
p4767
asS'3.A.1.25.5'
p4768
(lp4769
S'Q9WZQ6'
p4770
aS'Organic'
p4771
aS'Vitamins'
p4772
aS'"Biotin, riboflavin"'
p4773
aS'"15956, 17015"'
p4774
aS'Predicted\n'
p4775
asS'3.A.1.25.6'
p4776
(lp4777
S'Q5M614'
p4778
aS'Organic'
p4779
aS'Vitamins'
p4780
aS'Riboflavin'
p4781
aS'17015'
p4782
aS'Known\n'
p4783
asS'3.A.1.25.7'
p4784
(lp4785
S'D5ARH0'
p4786
aS'Organic'
p4787
aS'Vitamins'
p4788
aS'Riboflavin'
p4789
aS'17015'
p4790
aS'Known\n'
p4791
asS'2.A.13.1.2'
p4792
(lp4793
S'P0ABN9'
p4794
aS'Organic'
p4795
aS'Carboxylates'
p4796
aS'"Fumarate, malate, succinate"'
p4797
aS'"29806, 15595, 26806"'
p4798
aS'Known'
p4799
aS'Y\n'
p4800
asS'3.A.1.25.1'
p4801
(lp4802
S'Q6GUB0'
p4803
aS'Organic'
p4804
aS'Vitamins'
p4805
aS'Biotin'
p4806
aS'15956'
p4807
aS'Known\n'
p4808
asS'9.B.37.2.1'
p4809
(lp4810
S'Q8R173'
p4811
aS'Inorganic'
p4812
aS'Cations'
p4813
aS'"Ca2+, Mg2+"'
p4814
aS'"29108, 18420"'
p4815
aS'Known\n'
p4816
asS'2.A.13.1.1'
p4817
(lp4818
S'P0ABN5'
p4819
aS'Organic'
p4820
aS'Carboxylates'
p4821
aS'"Aspartate, fumarate"'
p4822
aS'"29995, 29806"'
p4823
aS'Known'
p4824
aS'Y\n'
p4825
asS'2.A.7.3.6'
p4826
(lp4827
S'P0AA67'
p4828
aS'Organic'
p4829
aS'Amino acids and derivatives'
p4830
aS'"Threonine, homoserine"'
p4831
aS'"26986, 30653"'
p4832
aS'Known\n'
p4833
asS'9.A.40.3.1'
p4834
(lp4835
S'Q3TWN3'
p4836
aS'Inorganic'
p4837
aS'Cations'
p4838
aS'Mg2+'
p4839
aS'18420'
p4840
aS'Known\n'
p4841
asS'2.A.7.3.2'
p4842
(lp4843
S'P31125'
p4844
aS'Organic'
p4845
aS'Amino acids and derivatives'
p4846
aS'"O-acetylserine, cysteine, asparagine, glutamine"'
p4847
aS'"17981, 15356, 22653, 28300"'
p4848
aS'Known\n'
p4849
asS'1.B.15.1.1'
p4850
(lp4851
S'P77076'
p4852
aS'Organic'
p4853
aS'Sugars'
p4854
aS'Raffinose'
p4855
aS'16634'
p4856
aS'Known'
p4857
aS'Y\n'
p4858
asS'3.A.1.14.13'
p4859
(lp4860
S'Q9RK12'
p4861
aS'Organic'
p4862
aS'Siderophores'
p4863
aS'Fe3+-coelichelin'
p4864
aS'80049'
p4865
aS'Predicted\n'
p4866
asS'3.A.1.6.8'
p4867
(lp4868
S'O30142'
p4869
aS'Inorganic'
p4870
aS'Anions'
p4871
aS'"Tungstate, molybdate"'
p4872
aS'"46502, 36264"'
p4873
aS'Known\n'
p4874
asS'2.A.1.8.7'
p4875
(lp4876
S'A8J4P3'
p4877
aS'Inorganic'
p4878
aS'Anions'
p4879
aS'"NO3-, NO2-"'
p4880
aS'"17632, 16301"'
p4881
aS'Known'
p4882
aS'Y\n'
p4883
asS'1.B.42.1.2'
p4884
(lp4885
S'P0AF98'
p4886
aS'Macromolecules'
p4887
aS'Polysaccharides'
p4888
aS'LPS'
p4889
aS'16412'
p4890
aS'Known'
p4891
aS'Y\n'
p4892
asS'3.A.1.26.10'
p4893
(lp4894
S'Q839D4'
p4895
aS'Organic'
p4896
aS'Vitamins'
p4897
aS'Folate'
p4898
aS'62501'
p4899
aS'Known\n'
p4900
asS'3.A.1.14.10'
p4901
(lp4902
S'Q99YA4'
p4903
aS'Organic'
p4904
aS'Siderophores'
p4905
aS'Heme'
p4906
aS'30413'
p4907
aS'Predicted\n'
p4908
asS'1.A.26.1.2'
p4909
(lp4910
S'Q5SMG8'
p4911
aS'Inorganic'
p4912
aS'Cations'
p4913
aS'"Mg2+, Mn2+, Ca2+"'
p4914
aS'"18420, 29035, 29108"'
p4915
aS'Known'
p4916
aS'Y\n'
p4917
asS'3.A.1.6.1'
p4918
(lp4919
S'P16700'
p4920
aS'Inorganic'
p4921
aS'Anions'
p4922
aS'"Sulfate, thiosulfate"'
p4923
aS'"16189, 33541"'
p4924
aS'Known'
p4925
aS'Y\n'
p4926
asS'5.A.3.5.1'
p4927
(lp4928
S'P0A1I1'
p4929
aS'Inorganic'
p4930
aS'Electrons'
p4931
aS'Electrons'
p4932
aS'10545'
p4933
aS'Known\n'
p4934
asS'3.A.1.14.11'
p4935
(lp4936
S'E3GUW2'
p4937
aS'Inorganic'
p4938
aS'Anions'
p4939
aS'"Molybdate, tungstate"'
p4940
aS'"36264, 46502"'
p4941
aS'Known'
p4942
aS'Y\n'
p4943
asS'3.A.1.6.4'
p4944
(lp4945
S'Q3M5U3'
p4946
aS'Inorganic'
p4947
aS'Anions'
p4948
aS'Vanadate'
p4949
aS'46442'
p4950
aS'Predicted\n'
p4951
asS'3.A.1.6.5'
p4952
(lp4953
S'Q8U4K5'
p4954
aS'Inorganic'
p4955
aS'Anions'
p4956
aS'"Tungstate, molybdate"'
p4957
aS'"46502, 36264"'
p4958
aS'Known\n'
p4959
asS'3.A.1.6.6'
p4960
(lp4961
S'A3MW02'
p4962
aS'Inorganic'
p4963
aS'Anions'
p4964
aS'"Tungstate, molybdate"'
p4965
aS'"46502, 36264"'
p4966
aS'Predicted\n'
p4967
asS'3.A.1.6.7'
p4968
(lp4969
S'Q6QJE0'
p4970
aS'Inorganic'
p4971
aS'Anions'
p4972
aS'Sulfate'
p4973
aS'16189'
p4974
aS'Predicted\n'
p4975
asS'1.A.11.2.6'
p4976
(lp4977
S'Q9SVT8'
p4978
aS'Inorganic'
p4979
aS'Cations'
p4980
aS'NH4+'
p4981
aS'28938'
p4982
aS'Known'
p4983
aS'Y\n'
p4984
asS'2.A.1.2.4'
p4985
(lp4986
S'P02982'
p4987
aS'Organic'
p4988
aS'Drugs'
p4989
aS'Tetracycline'
p4990
aS'27902'
p4991
aS'Known'
p4992
aS'Y\n'
p4993
asS'2.A.1.2.7'
p4994
(lp4995
S'P28246'
p4996
aS'Organic'
p4997
aS'Drugs'
p4998
aS'"Biocyclomycin, sulfathiazole, tetracycline, fosfomycin, acriflavin"'
p4999
aS'"9337, 27902, 28915"'
p5000
aS'Known\n'
p5001
asS'3.A.1.17.8'
p5002
(lp5003
S'A7NH44'
p5004
aS'Organic'
p5005
aS'Vitamins'
p5006
aS'Thiamine'
p5007
aS'26948'
p5008
aS'Predicted\n'
p5009
asS'2.A.1.1.69'
p5010
(lp5011
S'A1Z264'
p5012
aS'Organic'
p5013
aS'Sugars'
p5014
aS'Glucose'
p5015
aS'17234'
p5016
aS'Predicted\n'
p5017
asS'2.A.1.1.68'
p5018
(lp5019
S'A3M0N3'
p5020
aS'Organic'
p5021
aS'Sugars'
p5022
aS'Glucose'
p5023
aS'17234'
p5024
aS'Predicted\n'
p5025
asS'1.A.11.2.1'
p5026
(lp5027
S'P54144'
p5028
aS'Organic'
p5029
aS'Amines'
p5030
aS'"NH3, CH3NH3"'
p5031
aS'"16134, 16830"'
p5032
aS'Known'
p5033
aS'Y\n'
p5034
asS'9.B.102.5.2'
p5035
(lp5036
S'E7BBJ1'
p5037
aS'Macromolecules'
p5038
aS'Proteins'
p5039
aS'Prodigiosin'
p5040
aS'82758'
p5041
aS'Predicted\n'
p5042
asS'9.B.102.5.3'
p5043
(lp5044
S'M2VZH1'
p5045
aS'Macromolecules'
p5046
aS'Proteins'
p5047
aS'Prodigiosin'
p5048
aS'82758'
p5049
aS'Predicted\n'
p5050
asS'2.A.1.1.67'
p5051
(lp5052
S'Q2MDH1'
p5053
aS'Organic'
p5054
aS'Sugars'
p5055
aS'"Glucose, xylose"'
p5056
aS'"17234, 18222"'
p5057
aS'Known\n'
p5058
asS'2.A.1.1.66'
p5059
(lp5060
S'Q8VZR6'
p5061
aS'Organic'
p5062
aS'Sugars'
p5063
aS'Inositol'
p5064
aS'17268'
p5065
aS'Known'
p5066
aS'Y\n'
p5067
asS'3.A.1.17.7'
p5068
(lp5069
S'A7NLS2'
p5070
aS'Organic'
p5071
aS'Vitamins'
p5072
aS'Riboflavin'
p5073
aS'17015'
p5074
aS'Predicted\n'
p5075
asS'2.A.1.1.60'
p5076
(lp5077
S'P23586'
p5078
aS'Organic'
p5079
aS'Sugars'
p5080
aS'Hexoses'
p5081
aS'18133'
p5082
aS'Known\n'
p5083
asS'3.A.1.17.5'
p5084
(lp5085
S'C0LZR9'
p5086
aS'Organic'
p5087
aS'Carboxylates'
p5088
aS'Phthalate'
p5089
aS'17563'
p5090
aS'Predicted\n'
p5091
asS'3.A.1.17.4'
p5092
(lp5093
S'Q2BM70'
p5094
aS'Organic'
p5095
aS'Amino acids and derivatives'
p5096
aS'Taurine'
p5097
aS'15891'
p5098
aS'Predicted\n'
p5099
asS'2.A.1.1.82'
p5100
(lp5101
S'Q7SCU1'
p5102
aS'Organic'
p5103
aS'Sugars'
p5104
aS'"Cellobiose, celldextrin"'
p5105
aS'"17057, 3523"'
p5106
aS'Predicted\n'
p5107
asS'2.A.21.3.9'
p5108
(lp5109
S'A8H019'
p5110
aS'Organic'
p5111
aS'Sugars'
p5112
aS'Galactose'
p5113
aS'28260'
p5114
aS'Predicted'
p5115
aS'Y\n'
p5116
asS'2.A.1.1.117'
p5117
(lp5118
S'G4N740'
p5119
aS'Organic'
p5120
aS'Sugars'
p5121
aS'Glucose'
p5122
aS'17234'
p5123
aS'Predicted\n'
p5124
asS'1.A.3.2.8'
p5125
(lp5126
S'G7ZUA6'
p5127
aS'Inorganic'
p5128
aS'Cations'
p5129
aS'Ca2+'
p5130
aS'29108'
p5131
aS'Predicted\n'
p5132
asS'1.A.3.2.9'
p5133
(lp5134
S'G7ZU97'
p5135
aS'Inorganic'
p5136
aS'Cations'
p5137
aS'Ca2+'
p5138
aS'29108'
p5139
aS'Predicted\n'
p5140
asS'1.A.2.1.15'
p5141
(lp5142
S'Q7PX90'
p5143
aS'Inorganic'
p5144
aS'Cations'
p5145
aS'K+'
p5146
aS'29103'
p5147
aS'Predicted\n'
p5148
asS'2.A.49.7.1'
p5149
(lp5150
S'H5KWQ5'
p5151
aS'Inorganic'
p5152
aS'Anions'
p5153
aS'Cl-'
p5154
aS'17996'
p5155
aS'Known'
p5156
aS'Y\n'
p5157
asS'1.A.3.2.5'
p5158
(lp5159
S'Q63269'
p5160
aS'Inorganic'
p5161
aS'Cations'
p5162
aS'Ca2+'
p5163
aS'29108'
p5164
aS'Known\n'
p5165
asS'1.A.3.2.6'
p5166
(lp5167
S'Q14643'
p5168
aS'Inorganic'
p5169
aS'Cations'
p5170
aS'Ca2+'
p5171
aS'29108'
p5172
aS'Known\n'
p5173
asS'1.A.3.2.7'
p5174
(lp5175
S'Q3SDX7'
p5176
aS'Inorganic'
p5177
aS'Cations'
p5178
aS'Ca2+'
p5179
aS'29108'
p5180
aS'Predicted\n'
p5181
asS'1.A.3.2.1'
p5182
(lp5183
S'P29995'
p5184
aS'Inorganic'
p5185
aS'Cations'
p5186
aS'Ca2+'
p5187
aS'29108'
p5188
aS'Known\n'
p5189
asS'1.A.3.2.2'
p5190
(lp5191
S'P29993'
p5192
aS'Inorganic'
p5193
aS'Cations'
p5194
aS'Ca2+'
p5195
aS'29108'
p5196
aS'Known\n'
p5197
asS'1.A.3.2.3'
p5198
(lp5199
S'Q23K98'
p5200
aS'Inorganic'
p5201
aS'Cations'
p5202
aS'Ca2+'
p5203
aS'29108'
p5204
aS'Predicted\n'
p5205
asS'3.A.1.4.7'
p5206
(lp5207
S'Q92TN4'
p5208
aS'Organic'
p5209
aS'Carboxylates'
p5210
aS'Protocatechuate'
p5211
aS'36032'
p5212
aS'Predicted\n'
p5213
asS'3.A.1.19.4'
p5214
(lp5215
S'B7L6N0'
p5216
aS'Inorganic'
p5217
aS'Anions'
p5218
aS'"Sulfate, thiosulfate"'
p5219
aS'"16189, 33541"'
p5220
aS'Predicted\n'
p5221
asS'3.A.1.14.7'
p5222
(lp5223
S'Q9X665'
p5224
aS'Organic'
p5225
aS'Siderophores'
p5226
aS'Fe3+hydroxamate'
p5227
aS'28163'
p5228
aS'Predicted\n'
p5229
asS'3.A.1.19.1'
p5230
(lp5231
S'P31550'
p5232
aS'Organic'
p5233
aS'Vitamins'
p5234
aS'"Thiamin, thiamin monophosphate, thiamin pyrophosphate"'
p5235
aS'"26948, 26945, 58937"'
p5236
aS'Known\n'
p5237
asS'3.A.1.19.2'
p5238
(lp5239
S'Q73RE4'
p5240
aS'Organic'
p5241
aS'Vitamins'
p5242
aS'Thiamine'
p5243
aS'26948'
p5244
aS'Predicted\n'
p5245
asS'2.A.1.4.3'
p5246
(lp5247
S'P08194'
p5248
aS'Inorganic'
p5249
aS'Anions'
p5250
aS'Glycerol-P'
p5251
aS'57597'
p5252
aS'Known\n'
p5253
asS'2.A.1.4.2'
p5254
(lp5255
S'P12681'
p5256
aS'Inorganic'
p5257
aS'Anions'
p5258
aS'Phosphoglycerate'
p5259
aS'61304'
p5260
aS'Known\n'
p5261
asS'2.A.1.4.6'
p5262
(lp5263
S'Q9Z7N9'
p5264
aS'Organic'
p5265
aS'Sugars'
p5266
aS'Glucose-6-P'
p5267
aS'17719'
p5268
aS'Known'
p5269
aS'Y\n'
p5270
asS'2.A.1.4.4'
p5271
(lp5272
S'P09836'
p5273
aS'Inorganic'
p5274
aS'Anions'
p5275
aS'Hexose-P'
p5276
aS'47878'
p5277
aS'Known\n'
p5278
asS'2.A.1.6.9'
p5279
(lp5280
S'P77228'
p5281
aS'Inorganic'
p5282
aS'Cations'
p5283
aS'K+'
p5284
aS'29103'
p5285
aS'Predicted\n'
p5286
asS'2.A.1.6.8'
p5287
(lp5288
S'Q7X4L6'
p5289
aS'Organic'
p5290
aS'Carboxylates'
p5291
aS'"Acetate, monochloroacetate"'
p5292
aS'"30089, 23123"'
p5293
aS'Predicted\n'
p5294
asS'3.A.1.1.19'
p5295
(lp5296
S'Q8L126'
p5297
aS'Organic'
p5298
aS'Sugars'
p5299
aS'Palatinose'
p5300
aS'18394'
p5301
aS'Predicted\n'
p5302
asS'3.A.1.11.9'
p5303
(lp5304
S'P0AFR9'
p5305
aS'Organic'
p5306
aS'Amines'
p5307
aS'"Putrescine, spermidine"'
p5308
aS'"17148, 16610"'
p5309
aS'Known\n'
p5310
asS'3.A.1.14.2'
p5311
(lp5312
S'C8U2V6'
p5313
aS'Organic'
p5314
aS'Siderophores'
p5315
aS'Fe3+-enterobactin'
p5316
aS'28855'
p5317
aS'Known'
p5318
aS'Y\n'
p5319
asS'3.A.1.17.13'
p5320
(lp5321
S'A9WDR8'
p5322
aS'Organic'
p5323
aS'Vitamins'
p5324
aS'Riboflavin'
p5325
aS'17015'
p5326
aS'Predicted\n'
p5327
asS'1.A.12.3.1'
p5328
(lp5329
S'P0ACA3'
p5330
aS'Inorganic'
p5331
aS'Anions'
p5332
aS'Cl-'
p5333
aS'17996'
p5334
aS'Predicted\n'
p5335
asS'3.A.1.1.11'
p5336
(lp5337
S'Q93KC0'
p5338
aS'Organic'
p5339
aS'Sugars'
p5340
aS'Oligogalacturonides'
p5341
aS'62533'
p5342
aS'Predicted\n'
p5343
asS'3.A.1.1.10'
p5344
(lp5345
S'Q9KWT9'
p5346
aS'Macromolecules'
p5347
aS'Polysaccharides'
p5348
aS'Alginate'
p5349
aS'58187'
p5350
aS'Predicted\n'
p5351
asS'3.A.1.4.10'
p5352
(lp5353
S'Q8DQH9'
p5354
aS'Organic'
p5355
aS'Amino acids and derivatives'
p5356
aS'"Leucine, isoleucine, valine, threonine, serine, alanine"'
p5357
aS'"15428, 24898, 27266, 26986, 17822, 16449"'
p5358
aS'Predicted\n'
p5359
asS'2.A.2.3.6'
p5360
(lp5361
S'A1S5F2'
p5362
aS'Organic'
p5363
aS'Sugars'
p5364
aS'Cellobiose'
p5365
aS'17057'
p5366
aS'Predicted\n'
p5367
asS'2.A.2.3.5'
p5368
(lp5369
S'P75683'
p5370
aS'Organic'
p5371
aS'Sugars'
p5372
aS'_-Xylosides'
p5373
aS'27926'
p5374
aS'Predicted\n'
p5375
asS'2.A.1.6.6'
p5376
(lp5377
S'P76350'
p5378
aS'Organic'
p5379
aS'Carboxylates'
p5380
aS'Shikimate'
p5381
aS'36208'
p5382
aS'Predicted\n'
p5383
asS'2.A.3.2.7'
p5384
(lp5385
S'Q9Z6M8'
p5386
aS'Organic'
p5387
aS'Amino acids and derivatives'
p5388
aS'Arginine'
p5389
aS'29016'
p5390
aS'Known\n'
p5391
asS'2.A.3.2.6'
p5392
(lp5393
S'O32204'
p5394
aS'Organic'
p5395
aS'Amino acids and derivatives'
p5396
aS'Lysine'
p5397
aS'25094'
p5398
aS'Predicted\n'
p5399
asS'2.A.3.2.5'
p5400
(lp5401
S'P60061'
p5402
aS'Organic'
p5403
aS'Amino acids and derivatives'
p5404
aS'Arginine'
p5405
aS'29016'
p5406
aS'Known\n'
p5407
asS'2.A.3.2.4'
p5408
(lp5409
S'P35865'
p5410
aS'Organic'
p5411
aS'Amino acids and derivatives'
p5412
aS'Lysine'
p5413
aS'25094'
p5414
aS'Predicted\n'
p5415
asS'2.A.3.2.3'
p5416
(lp5417
S'P18275'
p5418
aS'Organic'
p5419
aS'Amino acids and derivatives'
p5420
aS'"Arginine, ornithine"'
p5421
aS'"29016, 18257"'
p5422
aS'Known\n'
p5423
asS'2.A.3.1.14'
p5424
(lp5425
S'P0AA47'
p5426
aS'Organic'
p5427
aS'Amines'
p5428
aS'"Putrescine, spermidine"'
p5429
aS'"17148, 16610"'
p5430
aS'Known\n'
p5431
asS'2.A.3.2.1'
p5432
(lp5433
S'P0AAF1'
p5434
aS'Organic'
p5435
aS'Amines'
p5436
aS'Putrescine'
p5437
aS'17148'
p5438
aS'Known\n'
p5439
asS'1.A.13.2.3'
p5440
(lp5441
S'P76481'
p5442
aS'Inorganic'
p5443
aS'Anions'
p5444
aS'Cl-'
p5445
aS'17996'
p5446
aS'Predicted\n'
p5447
asS'2.A.49.5.3'
p5448
(lp5449
S'Q8FHC1'
p5450
aS'Inorganic'
p5451
aS'Anions'
p5452
aS'Cl-'
p5453
aS'17996'
p5454
aS'Known'
p5455
aS'Y\n'
p5456
asS'2.A.29.1.8'
p5457
(lp5458
S'Q9H0C2'
p5459
aS'Organic'
p5460
aS'Sugar derivatives'
p5461
aS'"ATP, ADP"'
p5462
aS'"15422, 16761"'
p5463
aS'Known'
p5464
aS'Y\n'
p5465
asS'1.A.23.4.5'
p5466
(lp5467
S'P0AAT4'
p5468
aS'Inorganic'
p5469
aS'Ions'
p5470
aS'Ions'
p5471
aS'24870'
p5472
aS'Known\n'
p5473
asS'1.A.23.4.3'
p5474
(lp5475
S'P0AEB5'
p5476
aS'Inorganic'
p5477
aS'Ions'
p5478
aS'Ions'
p5479
aS'24870'
p5480
aS'Known\n'
p5481
asS'2.A.3.2.9'
p5482
(lp5483
S'E0WF79'
p5484
aS'Organic'
p5485
aS'"Amino acids and derivatives, amines"'
p5486
aS'"Histidine, histamine"'
p5487
aS'"27570, 18295"'
p5488
aS'Predicted\n'
p5489
asS'2.A.49.5.4'
p5490
(lp5491
S'A8AGW0'
p5492
aS'Inorganic'
p5493
aS'Anions'
p5494
aS'Cl-'
p5495
aS'17996'
p5496
aS'Known\n'
p5497
asS'2.A.1.1.26'
p5498
(lp5499
S'O34718'
p5500
aS'Organic'
p5501
aS'Sugar alcohols'
p5502
aS'Myo-inositol'
p5503
aS'17268'
p5504
aS'Predicted\n'
p5505
asS'2.A.1.6.3'
p5506
(lp5507
S'Q52000'
p5508
aS'Organic'
p5509
aS'Carboxylates'
p5510
aS'Dicarboxylates'
p5511
aS'28965'
p5512
aS'Predicted\n'
p5513
asS'2.A.4.1.4'
p5514
(lp5515
S'P75757'
p5516
aS'Inorganic'
p5517
aS'Cations'
p5518
aS'"Zn2+, Cd2+"'
p5519
aS'"29105, 48775"'
p5520
aS'Known\n'
p5521
asS'1.A.14.1.1'
p5522
(lp5523
S'P55061'
p5524
aS'Inorganic'
p5525
aS'Cations'
p5526
aS'Ca2+'
p5527
aS'29108'
p5528
aS'Known'
p5529
aS'Y\n'
p5530
asS'2.A.5.1.8'
p5531
(lp5532
S'O94639'
p5533
aS'Inorganic'
p5534
aS'Cations'
p5535
aS'Zn2+'
p5536
aS'29105'
p5537
aS'Known'
p5538
aS'Y\n'
p5539
asS'3.A.1.33.1'
p5540
(lp5541
S'Q8R9M1'
p5542
aS'Organic'
p5543
aS'Nucleobases'
p5544
aS'Methylthioadenosine'
p5545
aS'17509'
p5546
aS'Predicted\n'
p5547
asS'2.A.66.1.24'
p5548
(lp5549
S'Q9SFB0'
p5550
aS'Organic'
p5551
aS'Carboxylates'
p5552
aS'Citrate'
p5553
aS'35808'
p5554
aS'Known'
p5555
aS'Y\n'
p5556
asS'2.A.5.1.3'
p5557
(lp5558
S'O81123'
p5559
aS'Inorganic'
p5560
aS'Cations'
p5561
aS'"Zn2+, Fe2+"'
p5562
aS'"29105, 29033"'
p5563
aS'Known'
p5564
aS'Y\n'
p5565
asS'2.A.1.1.99'
p5566
(lp5567
S'A1Z8N1'
p5568
aS'Organic'
p5569
aS'Sugars'
p5570
aS'Trehalose'
p5571
aS'27082'
p5572
aS'Known\n'
p5573
asS'4.A.6.1.3'
p5574
(lp5575
S'P37082'
p5576
aS'Organic'
p5577
aS'Sugars'
p5578
aS'Sorbose'
p5579
aS'27922'
p5580
aS'Known\n'
p5581
asS'2.A.4.3.4'
p5582
(lp5583
S'Q9ZT63'
p5584
aS'Inorganic'
p5585
aS'Cations'
p5586
aS'Zn2+'
p5587
aS'29105'
p5588
aS'Known'
p5589
aS'Y\n'
p5590
asS'4.A.6.1.1'
p5591
(lp5592
S'P69797'
p5593
aS'Organic'
p5594
aS'Sugars'
p5595
aS'"Mannose, glucose, glucosamine, fructose"'
p5596
aS'"37684, 17234, 5417, 28757"'
p5597
aS'Known\n'
p5598
asS'2.A.1.46.5'
p5599
(lp5600
S'C2UR80'
p5601
aS'Organic'
p5602
aS'Drugs'
p5603
aS'Quinolone'
p5604
aS'23765'
p5605
aS'Predicted\n'
p5606
asS'2.A.4.3.1'
p5607
(lp5608
S'Q62941'
p5609
aS'Inorganic'
p5610
aS'Cations'
p5611
aS'Zn2+'
p5612
aS'29105'
p5613
aS'Known'
p5614
aS'Y\n'
p5615
asS'4.A.6.1.6'
p5616
(lp5617
S'Q2QKM4'
p5618
aS'Organic'
p5619
aS'Sugars'
p5620
aS'Glucose'
p5621
aS'17234'
p5622
aS'Known\n'
p5623
asS'4.A.6.1.5'
p5624
(lp5625
S'P42909'
p5626
aS'Organic'
p5627
aS'Sugars'
p5628
aS'Galactosamine'
p5629
aS'24156'
p5630
aS'Known\n'
p5631
asS'2.A.4.3.2'
p5632
(lp5633
S'Q99726'
p5634
aS'Inorganic'
p5635
aS'Cations'
p5636
aS'Zn2+'
p5637
aS'29105'
p5638
aS'Known'
p5639
aS'Y\n'
p5640
asS'3.A.1.23.2'
p5641
(lp5642
S'Q97JC1'
p5643
aS'Inorganic'
p5644
aS'Cations'
p5645
aS'Co2+'
p5646
aS'48828'
p5647
aS'Predicted\n'
p5648
asS'2.A.5.3.5'
p5649
(lp5650
S'P59889'
p5651
aS'Inorganic'
p5652
aS'Cations'
p5653
aS'Zn2+'
p5654
aS'29105'
p5655
aS'Known'
p5656
aS'Y\n'
p5657
asS'3.A.1.23.1'
p5658
(lp5659
S'Q79CJ1'
p5660
aS'Inorganic'
p5661
aS'Cations'
p5662
aS'Ni2+'
p5663
aS'49786'
p5664
aS'Predicted\n'
p5665
asS'3.A.1.23.6'
p5666
(lp5667
S'Q05598'
p5668
aS'Inorganic'
p5669
aS'Cations'
p5670
aS'Co2+'
p5671
aS'48828'
p5672
aS'Known\n'
p5673
asS'2.A.5.3.1'
p5674
(lp5675
S'Q9NP94'
p5676
aS'Inorganic'
p5677
aS'Cations'
p5678
aS'Zn2+'
p5679
aS'29105'
p5680
aS'Known'
p5681
aS'Y\n'
p5682
asS'3.A.1.23.4'
p5683
(lp5684
S'Q8R9C1'
p5685
aS'Inorganic'
p5686
aS'Cations'
p5687
aS'Ni2+'
p5688
aS'49786'
p5689
aS'Predicted\n'
p5690
asS'3.A.1.23.5'
p5691
(lp5692
S'Q8RD07'
p5693
aS'Inorganic'
p5694
aS'Cations'
p5695
aS'"Co2+, Ni2+"'
p5696
aS'"48828, 49786"'
p5697
aS'Predicted\n'
p5698
asS'3.A.1.14.6'
p5699
(lp5700
S'Q9RCF6'
p5701
aS'Organic'
p5702
aS'Siderophores'
p5703
aS'Fe3+-chrysobactin'
p5704
aS'"61375, 38151"'
p5705
aS'Predicted\n'
p5706
asS'2.A.7.13.2'
p5707
(lp5708
S'Q5A477'
p5709
aS'Organic'
p5710
aS'Sugar derviatives'
p5711
aS'GDP-mannose'
p5712
aS'21168'
p5713
aS'Known'
p5714
aS'Y\n'
p5715
asS'2.A.52.1.1'
p5716
(lp5717
S'P23516'
p5718
aS'Inorganic'
p5719
aS'Cations'
p5720
aS'Ni2+'
p5721
aS'49786'
p5722
aS'Known\n'
p5723
asS'1.A.1.21.1'
p5724
(lp5725
S'Q81HW2'
p5726
aS'Inorganic'
p5727
aS'Cations'
p5728
aS'"K+, Na+"'
p5729
aS'"29103, 29101"'
p5730
aS'Predicted\n'
p5731
asS'2.A.5.5.1'
p5732
(lp5733
S'P0A8H3'
p5734
aS'Inorganic'
p5735
aS'Cations'
p5736
aS'"Fe2+, Co2+, Mn2+, Cd2+, Zn2+"'
p5737
aS'"29033, 48828, 29035, 48775, 29105"'
p5738
aS'Known\n'
p5739
asS'2.A.49.3.3'
p5740
(lp5741
S'P51798'
p5742
aS'Inorganic'
p5743
aS'Anions'
p5744
aS'Cl-'
p5745
aS'17996'
p5746
aS'Known'
p5747
aS'Y\n'
p5748
asS'2.A.53.2.12'
p5749
(lp5750
S'G3C7W4'
p5751
aS'Inorganic'
p5752
aS'"Anions, carboxylates"'
p5753
aS'"Cl-, oxalate, HCO3-"'
p5754
aS'17996'
p5755
aS'Known'
p5756
aS'Y\n'
p5757
asS'1.A.1.10.14'
p5758
(lp5759
S'A8JF90'
p5760
aS'Inorganic'
p5761
aS'Cations'
p5762
aS'Ca2+'
p5763
aS'29108'
p5764
aS'Predicted\n'
p5765
asS'1.A.1.10.15'
p5766
(lp5767
S'A1E023'
p5768
aS'Inorganic'
p5769
aS'Cations'
p5770
aS'Na+'
p5771
aS'29101'
p5772
aS'Predicted\n'
p5773
asS'1.A.1.10.16'
p5774
(lp5775
S'C3RTM3'
p5776
aS'Inorganic'
p5777
aS'Cations'
p5778
aS'Na+'
p5779
aS'29101'
p5780
aS'Predicted\n'
p5781
asS'1.A.1.10.17'
p5782
(lp5783
S'A5I843'
p5784
aS'Inorganic'
p5785
aS'Cations'
p5786
aS'Na+'
p5787
aS'29101'
p5788
aS'Predicted\n'
p5789
asS'1.A.1.10.10'
p5790
(lp5791
S'O01307'
p5792
aS'Inorganic'
p5793
aS'Cations'
p5794
aS'Na+'
p5795
aS'29101'
p5796
aS'Predicted\n'
p5797
asS'5.A.3.1.2'
p5798
(lp5799
S'P0AF32'
p5800
aS'Inorganic'
p5801
aS'Electrons'
p5802
aS'Electrons'
p5803
aS'10545'
p5804
aS'Known\n'
p5805
asS'5.A.3.1.1'
p5806
(lp5807
S'P11350'
p5808
aS'Inorganic'
p5809
aS'Electrons'
p5810
aS'Electrons'
p5811
aS'10545'
p5812
aS'Known\n'
p5813
asS'1.A.1.10.13'
p5814
(lp5815
S'Q9W0Y8'
p5816
aS'Inorganic'
p5817
aS'Cations'
p5818
aS'Na+'
p5819
aS'29101'
p5820
aS'Known\n'
p5821
asS'2.A.1.1.86'
p5822
(lp5823
S'H9BPB6'
p5824
aS'Organic'
p5825
aS'Sugars'
p5826
aS'Glucose'
p5827
aS'17234'
p5828
aS'Predicted\n'
p5829
asS'3.A.2.2.6'
p5830
(lp5831
S'Q8BVE3'
p5832
aS'Inorganic'
p5833
aS'Cations'
p5834
aS'"H+, Na+"'
p5835
aS'"24636, 29101"'
p5836
aS'Known\n'
p5837
asS'3.A.1.139.2'
p5838
(lp5839
S'P77307'
p5840
aS'Inorganic'
p5841
aS'Cations'
p5842
aS'Fe2+'
p5843
aS'29033'
p5844
aS'Known\n'
p5845
asS'5.A.3.3.1'
p5846
(lp5847
S'P76173'
p5848
aS'Inorganic'
p5849
aS'Electrons'
p5850
aS'Electrons'
p5851
aS'10545'
p5852
aS'Known\n'
p5853
asS'4.A.1.1.1'
p5854
(lp5855
S'P69783'
p5856
aS'Organic'
p5857
aS'Sugars'
p5858
aS'Glucose'
p5859
aS'17234'
p5860
aS'Known\n'
p5861
asS'4.A.1.1.2'
p5862
(lp5863
S'P09323'
p5864
aS'Organic'
p5865
aS'Sugars'
p5866
aS'N-acetylglucosamine'
p5867
aS'506227'
p5868
aS'Known\n'
p5869
asS'4.A.1.1.3'
p5870
(lp5871
S'P19642'
p5872
aS'Organic'
p5873
aS'Sugars'
p5874
aS'Maltose'
p5875
aS'17306'
p5876
aS'Known\n'
p5877
asS'3.A.1.2.27'
p5878
(lp5879
S'P77269'
p5880
aS'Organic'
p5881
aS'Sugars'
p5882
aS'Sugars'
p5883
aS'16646'
p5884
aS'Predicted\n'
p5885
asS'3.A.1.2.26'
p5886
(lp5887
S'A6LW12'
p5888
aS'Organic'
p5889
aS'Sugars'
p5890
aS'Xylose'
p5891
aS'18222'
p5892
aS'Predicted\n'
p5893
asS'3.A.1.2.25'
p5894
(lp5895
S'P37772'
p5896
aS'Organic'
p5897
aS'Sugars'
p5898
aS'Sugars'
p5899
aS'16646'
p5900
aS'Predicted\n'
p5901
asS'3.A.1.2.24'
p5902
(lp5903
S'O50505'
p5904
aS'Organic'
p5905
aS'Sugars'
p5906
aS'Sugars'
p5907
aS'16646'
p5908
aS'Predicted\n'
p5909
asS'3.A.1.2.23'
p5910
(lp5911
S'Q8G845'
p5912
aS'Organic'
p5913
aS'Sugars'
p5914
aS'Sugars'
p5915
aS'16646'
p5916
aS'Predicted\n'
p5917
asS'3.A.1.2.22'
p5918
(lp5919
S'Q8G3Q9'
p5920
aS'Organic'
p5921
aS'Sugars'
p5922
aS'Sugars'
p5923
aS'16646'
p5924
aS'Predicted\n'
p5925
asS'3.A.1.103.4'
p5926
(lp5927
S'Q1D3I3'
p5928
aS'Macromolecules'
p5929
aS'Polysaccharides'
p5930
aS'Lipopolysaccharides'
p5931
aS'16412'
p5932
aS'Predicted\n'
p5933
asS'3.A.1.2.20'
p5934
(lp5935
S'G4FGN4'
p5936
aS'Organic'
p5937
aS'Sugars'
p5938
aS'"Glucose, xylose"'
p5939
aS'"17234, 18222"'
p5940
aS'Predicted\n'
p5941
asS'2.A.100.1.4'
p5942
(lp5943
S'Q9NP59'
p5944
aS'Inorganic'
p5945
aS'Cations'
p5946
aS'"Fe2+, Mn2+"'
p5947
aS'"29033, 29035"'
p5948
aS'Known'
p5949
aS'Y\n'
p5950
asS'9.A.28.1.1'
p5951
(lp5952
S'P41796'
p5953
aS'Organic'
p5954
aS'Amines'
p5955
aS'Ethanolamine'
p5956
aS'16000'
p5957
aS'Known\n'
p5958
asS'2.A.1.8.9'
p5959
(lp5960
S'Q9RA45'
p5961
aS'Inorganic'
p5962
aS'Anions'
p5963
aS'"Nitrite, nitrate"'
p5964
aS'"16301, 17632"'
p5965
aS'Predicted\n'
p5966
asS'2.A.1.8.8'
p5967
(lp5968
S'Q9RA46'
p5969
aS'Inorganic'
p5970
aS'Anions'
p5971
aS'"NO3-, NO2-"'
p5972
aS'"17632, 16301"'
p5973
aS'Known'
p5974
aS'Y\n'
p5975
asS'2.A.21.1.1'
p5976
(lp5977
S'P16256'
p5978
aS'Organic'
p5979
aS'Vitamins'
p5980
aS'Pantothenate'
p5981
aS'16454'
p5982
aS'Known'
p5983
aS'Y\n'
p5984
asS'2.A.1.8.6'
p5985
(lp5986
S'Q39608'
p5987
aS'Inorganic'
p5988
aS'Anions'
p5989
aS'Nitrate'
p5990
aS'17632'
p5991
aS'Known\n'
p5992
asS'2.A.1.14.33'
p5993
(lp5994
S'P39398'
p5995
aS'Organic'
p5996
aS'Carboxylates'
p5997
aS'Galactonate'
p5998
aS'24148'
p5999
aS'Predicted\n'
p6000
asS'2.A.1.8.4'
p6001
(lp6002
S'Q9SWR8'
p6003
aS'Inorganic'
p6004
aS'Anions'
p6005
aS'NO3-'
p6006
aS'17632'
p6007
aS'Known'
p6008
aS'Y\n'
p6009
asS'2.A.1.14.35'
p6010
(lp6011
S'P76470'
p6012
aS'Organic'
p6013
aS'Carboxylates'
p6014
aS'Rhamnonate'
p6015
aS'26544'
p6016
aS'Predicted\n'
p6017
asS'2.A.1.8.2'
p6018
(lp6019
S'P42432'
p6020
aS'Inorganic'
p6021
aS'Anions'
p6022
aS'"Nitrite, nitrate"'
p6023
aS'"16301, 17632"'
p6024
aS'Known\n'
p6025
asS'2.A.1.8.1'
p6026
(lp6027
S'P10903'
p6028
aS'Inorganic'
p6029
aS'Anions'
p6030
aS'Nitrate'
p6031
aS'17632'
p6032
aS'Known\n'
p6033
asS'2.A.1.7.23'
p6034
(lp6035
S'Q569T7'
p6036
aS'Organic'
p6037
aS'Sugars'
p6038
aS'Glucose'
p6039
aS'17234'
p6040
aS'Predicted\n'
p6041
asS'1.A.8.16.1'
p6042
(lp6043
S'O94778'
p6044
aS'Inorganic'
p6045
aS'Metabolites'
p6046
aS'"Water, glycerol, dihydroxyacetone"'
p6047
aS'"15377, 16199, 16016"'
p6048
aS'Known'
p6049
aS'Y\n'
p6050
asS'3.A.1.11.1'
p6051
(lp6052
S'P0AFK9'
p6053
aS'Organic'
p6054
aS'Amines'
p6055
aS'"Putrescine, spermidine"'
p6056
aS'"17148, 16610"'
p6057
aS'Known\n'
p6058
asS'2.A.29.18.2'
p6059
(lp6060
S'Q94AG6'
p6061
aS'Organic'
p6062
aS'Amino acids and derivatives'
p6063
aS'"S-adenosylmethionine, S-adenosylhomocysteine"'
p6064
aS'"15414, 16680"'
p6065
aS'Known'
p6066
aS'Y\n'
p6067
asS'3.A.1.12.10'
p6068
(lp6069
S'Q87WH5'
p6070
aS'Organic'
p6071
aS'"Amines, amino acids and derivatives"'
p6072
aS'"Glycine betaine, choline, acetylcholine, carnitine, proline betaine"'
p6073
aS'"17750, 15354, 15355, 17126, 35280"'
p6074
aS'Predicted\n'
p6075
asS'3.A.1.25.2'
p6076
(lp6077
S'Q2FNH6'
p6078
aS'Organic'
p6079
aS'Vitamins'
p6080
aS'Biotin'
p6081
aS'15956'
p6082
aS'Predicted\n'
p6083
asS'2.A.29.18.1'
p6084
(lp6085
S'P38921'
p6086
aS'Organic'
p6087
aS'Amino acids and derivatives'
p6088
aS'S-adenosylmethionine'
p6089
aS'15414'
p6090
aS'Known'
p6091
aS'Y\n'
p6092
asS'2.A.36.7.6'
p6093
(lp6094
S'Q9LKW9'
p6095
aS'Inorganic'
p6096
aS'Cations'
p6097
aS'Na+'
p6098
aS'29101'
p6099
aS'Known'
p6100
aS'Y\n'
p6101
asS'2.A.7.9.3'
p6102
(lp6103
S'P93642'
p6104
aS'Organic'
p6105
aS'Carboxylates'
p6106
aS'Phosphoenolpyruvate'
p6107
aS'18021'
p6108
aS'Known'
p6109
aS'Y\n'
p6110
asS'3.A.1.105.1'
p6111
(lp6112
S'P32011'
p6113
aS'Organic'
p6114
aS'Drugs'
p6115
aS'"Daunorubicin, doxorubicin"'
p6116
aS'"41977, 28748"'
p6117
aS'Known\n'
p6118
asS'5.B.2.2.4'
p6119
(lp6120
S'M2VZF5'
p6121
aS'Inorganic'
p6122
aS'Electrons'
p6123
aS'Electrons'
p6124
aS'10545'
p6125
aS'Known\n'
p6126
asS'1.A.1.2.9'
p6127
(lp6128
S'P97557'
p6129
aS'Inorganic'
p6130
aS'Cations'
p6131
aS'K+'
p6132
aS'29103'
p6133
aS'Known\n'
p6134
asS'5.B.2.2.2'
p6135
(lp6136
S'Q0WRW8'
p6137
aS'Inorganic'
p6138
aS'Electrons'
p6139
aS'Electrons'
p6140
aS'10545'
p6141
aS'Known\n'
p6142
asS'3.A.1.12.12'
p6143
(lp6144
S'Q9HZ04'
p6145
aS'Organic'
p6146
aS'"Amines, amino acids and derivatives"'
p6147
aS'"Choline, carnitine, glycine betaine"'
p6148
aS'"15354, 17126, 17750"'
p6149
aS'Predicted\n'
p6150
asS'5.B.2.2.1'
p6151
(lp6152
S'G7ZYU6'
p6153
aS'Inorganic'
p6154
aS'Electrons'
p6155
aS'Electrons'
p6156
aS'10545'
p6157
aS'Known\n'
p6158
asS'3.A.1.7.5'
p6159
(lp6160
S'O51233'
p6161
aS'Inorganic'
p6162
aS'Anions'
p6163
aS'Phosphate'
p6164
aS'24838'
p6165
aS'Known\n'
p6166
asS'2.A.2.5.1'
p6167
(lp6168
S'Q93KC2'
p6169
aS'Organic'
p6170
aS'Sugars'
p6171
aS'Oligogalacturonide'
p6172
aS'62533'
p6173
aS'Predicted\n'
p6174
asS'2.A.20.2.4'
p6175
(lp6176
S'Q38954'
p6177
aS'Inorganic'
p6178
aS'Anions'
p6179
aS'Phosphate'
p6180
aS'18367'
p6181
aS'Known'
p6182
aS'Y\n'
p6183
asS'1.A.1.4.9'
p6184
(lp6185
S'P92960'
p6186
aS'Inorganic'
p6187
aS'Cations'
p6188
aS'K+'
p6189
aS'29103'
p6190
aS'Known\n'
p6191
asS'1.A.76.2.1'
p6192
(lp6193
S'O64567'
p6194
aS'Inorganic'
p6195
aS'Cations'
p6196
aS'Mg2+'
p6197
aS'18420'
p6198
aS'Known'
p6199
aS'Y\n'
p6200
asS'2.A.1.1.33'
p6201
(lp6202
S'Q8NJ22'
p6203
aS'Organic'
p6204
aS'Sugars'
p6205
aS'Fructose'
p6206
aS'28757'
p6207
aS'Known'
p6208
aS'Y\n'
p6209
asS'3.A.1.7.1'
p6210
(lp6211
S'P0AGH8'
p6212
aS'Inorganic'
p6213
aS'Anions'
p6214
aS'Phosphate'
p6215
aS'24838'
p6216
aS'Known'
p6217
aS'Y\n'
p6218
asS'2.A.21.2.1'
p6219
(lp6220
S'P07117'
p6221
aS'Organic'
p6222
aS'Amino acids and derivatives'
p6223
aS'Proline'
p6224
aS'26271'
p6225
aS'Known'
p6226
aS'Y\n'
p6227
asS'2.A.1.1.30'
p6228
(lp6229
S'P32467'
p6230
aS'Organic'
p6231
aS'Sugars'
p6232
aS'"Glucose, xylose"'
p6233
aS'"17234, 18222"'
p6234
aS'Known\n'
p6235
asS'2.A.1.1.31'
p6236
(lp6237
S'P39004'
p6238
aS'Organic'
p6239
aS'Sugars'
p6240
aS'Hexoses'
p6241
aS'18133'
p6242
aS'Known\n'
p6243
asS'3.A.1.7.3'
p6244
(lp6245
S'D0VWY2'
p6246
aS'Inorganic'
p6247
aS'Anions'
p6248
aS'Phosphate'
p6249
aS'24838'
p6250
aS'Predicted\n'
p6251
asS'2.A.1.6.2'
p6252
(lp6253
S'P0AEX3'
p6254
aS'Organic'
p6255
aS'Carboxylates'
p6256
aS'Alpha-ketoglutarate'
p6257
aS'16810'
p6258
aS'Known\n'
p6259
asS'2.A.1.1.36'
p6260
(lp6261
S'Q400D8'
p6262
aS'Organic'
p6263
aS'Sugars'
p6264
aS'Glucose'
p6265
aS'17234'
p6266
aS'Predicted\n'
p6267
asS'3.A.1.5.24'
p6268
(lp6269
S'Q8ZNK0'
p6270
aS'Organic'
p6271
aS'Peptides'
p6272
aS'Peptides'
p6273
aS'16670'
p6274
aS'Predicted\n'
p6275
asS'2.A.36.1.9'
p6276
(lp6277
S'Q9Y2E8'
p6278
aS'Inorganic'
p6279
aS'Cations'
p6280
aS'Na+'
p6281
aS'29101'
p6282
aS'Known'
p6283
aS'Y\n'
p6284
asS'2.A.3.1.5'
p6285
(lp6286
S'P46349'
p6287
aS'Organic'
p6288
aS'Amino acids and derivatives'
p6289
aS'"_-alanine, _-aminobutyrate, proline, 3,4-dehydroproline, 3-aminobutyrate, 3-aminopropanoate, cis-4-aminobutenoate"'
p6290
aS'Known\n'
p6291
asS'3.A.1.1.22'
p6292
(lp6293
S'Q9X2F5'
p6294
aS'Organic'
p6295
aS'Sugars'
p6296
aS'"Maltose, maltriose, maltotetraose, trehalose"'
p6297
aS'17306'
p6298
aS'Predicted\n'
p6299
asS'3.A.1.1.23'
p6300
(lp6301
S'Q9X9R7'
p6302
aS'Organic'
p6303
aS'Sugars'
p6304
aS'"Cellobiose, cellotriose"'
p6305
aS'"17057, 3528"'
p6306
aS'Predicted\n'
p6307
asS'2.A.124.1.1'
p6308
(lp6309
S'P75826'
p6310
aS'Organic'
p6311
aS'Amino acids and derivatives'
p6312
aS'Lysine'
p6313
aS'53558'
p6314
aS'Known\n'
p6315
asS'3.A.1.1.26'
p6316
(lp6317
S'P94360'
p6318
aS'Organic'
p6319
aS'Sugars'
p6320
aS'Maltose'
p6321
aS'17306'
p6322
aS'Predicted\n'
p6323
asS'3.A.1.1.27'
p6324
(lp6325
S'Q8DT28'
p6326
aS'Organic'
p6327
aS'Sugars'
p6328
aS'"Maltose, maltriose, maltotetraose, trehalose"'
p6329
aS'"17306, 61993, 28460, 27082"'
p6330
aS'Predicted\n'
p6331
asS'2.A.1.14.9'
p6332
(lp6333
S'Q9RPV1'
p6334
aS'Organic'
p6335
aS'Carboxylates'
p6336
aS'p-hydroxyphenylacetate'
p6337
aS'31128'
p6338
aS'Predicted\n'
p6339
asS'9.B.27.2.3'
p6340
(lp6341
S'P0ABP6'
p6342
aS'Inorganic'
p6343
aS'Anions'
p6344
aS'Selenite'
p6345
aS'18212'
p6346
aS'Predicted\n'
p6347
asS'2.A.1.14.7'
p6348
(lp6349
S'P0AA76'
p6350
aS'Organic'
p6351
aS'Carboxylates'
p6352
aS'Galactonate'
p6353
aS'24148'
p6354
aS'Known\n'
p6355
asS'3.A.1.1.28'
p6356
(lp6357
S'Q00752'
p6358
aS'Organic'
p6359
aS'Sugars'
p6360
aS'"Raffinose, stachyose"'
p6361
aS'"16634, 17164"'
p6362
aS'Predicted\n'
p6363
asS'2.A.1.1.35'
p6364
(lp6365
S'Q7BEC4'
p6366
aS'Organic'
p6367
aS'Sugars'
p6368
aS'Glucose'
p6369
aS'17234'
p6370
aS'Predicted\n'
p6371
asS'2.A.1.14.3'
p6372
(lp6373
S'P70786'
p6374
aS'Organic'
p6375
aS'Carboxylates'
p6376
aS'Tartrate'
p6377
aS'132950'
p6378
aS'Known'
p6379
aS'Y\n'
p6380
asS'2.A.1.14.2'
p6381
(lp6382
S'P0AA78'
p6383
aS'Organic'
p6384
aS'Carboxylates'
p6385
aS'"Glucuronate, galacturonate"'
p6386
aS'"24297, 24175"'
p6387
aS'Known\n'
p6388
asS'2.A.85.2.6'
p6389
(lp6390
S'Q9LPQ8'
p6391
aS'Organic'
p6392
aS'Carboxylates'
p6393
aS'Malate'
p6394
aS'15595'
p6395
aS'Known'
p6396
aS'Y\n'
p6397
asS'2.A.7.25.2'
p6398
(lp6399
S'Q8N8Q9'
p6400
aS'Inorganic'
p6401
aS'Cations'
p6402
aS'Mg2+'
p6403
aS'18420'
p6404
aS'Known'
p6405
aS'Y\n'
p6406
asS'9.B.20.1.1'
p6407
(lp6408
S'P22037'
p6409
aS'Inorganic'
p6410
aS'Cations'
p6411
aS'Mg2+'
p6412
aS'18420'
p6413
aS'Predicted\n'
p6414
asS'9.B.20.1.2'
p6415
(lp6416
S'O07221'
p6417
aS'Inorganic'
p6418
aS'Cations'
p6419
aS'Mg2+'
p6420
aS'18420'
p6421
aS'Predicted\n'
p6422
asS'2.A.1.12.1'
p6423
(lp6424
S'P41036'
p6425
aS'Organic'
p6426
aS'Sugar derivatives'
p6427
aS'Sialic acid'
p6428
aS'26667'
p6429
aS'Predicted\n'
p6430
asS'2.A.1.12.2'
p6431
(lp6432
S'P36035'
p6433
aS'Organic'
p6434
aS'Carboxylates'
p6435
aS'"Lactate, pyruvate"'
p6436
aS'"24996, 15361"'
p6437
aS'Known\n'
p6438
asS'2.A.20.2.1'
p6439
(lp6440
S'P15710'
p6441
aS'Inorganic'
p6442
aS'"Anions, cations"'
p6443
aS'"Phosphate, Na+"'
p6444
aS'"18367, 29101"'
p6445
aS'Known'
p6446
aS'Y\n'
p6447
asS'5.B.7.1.1'
p6448
(lp6449
S'Q8XB73'
p6450
aS'Inorganic'
p6451
aS'Electrons'
p6452
aS'Electrons'
p6453
aS'10545'
p6454
aS'Known\n'
p6455
asS'3.A.1.103.2'
p6456
(lp6457
S'Q6E7E9'
p6458
aS'Macromolecules'
p6459
aS'Polysaccharides'
p6460
aS'Heteropolysaccharide O-antigen'
p6461
aS'64637'
p6462
aS'Predicted\n'
p6463
asS'3.A.1.8.1'
p6464
(lp6465
S'P09833'
p6466
aS'Inorganic'
p6467
aS'Anions'
p6468
aS'Molybdate'
p6469
aS'36264'
p6470
aS'Known\n'
p6471
asS'2.A.1.20.2'
p6472
(lp6473
S'P33026'
p6474
aS'Organic'
p6475
aS'Sugars'
p6476
aS'"Lactose, glucose"'
p6477
aS'"17716, 17234"'
p6478
aS'Known\n'
p6479
asS'2.A.1.20.3'
p6480
(lp6481
S'P31436'
p6482
aS'Organic'
p6483
aS'Sugars'
p6484
aS'Arabinose'
p6485
aS'22599'
p6486
aS'Known\n'
p6487
asS'1.A.3.1.4'
p6488
(lp6489
S'R9R5D5'
p6490
aS'Inorganic'
p6491
aS'Cations'
p6492
aS'Ca2+'
p6493
aS'29108'
p6494
aS'Predicted\n'
p6495
asS'3.A.1.25.3'
p6496
(lp6497
S'A2SPQ6'
p6498
aS'Organic'
p6499
aS'Vitamins'
p6500
aS'Biotin'
p6501
aS'15956'
p6502
aS'Predicted\n'
p6503
asS'2.A.66.2.10'
p6504
(lp6505
S'O26447'
p6506
aS'Macromolecules'
p6507
aS'Polysaccharides'
p6508
aS'O-antigen'
p6509
aS'64637'
p6510
aS'Known'
p6511
aS'Y\n'
p6512
asS'1.A.4.2.9'
p6513
(lp6514
S'Q8NET8'
p6515
aS'Inorganic'
p6516
aS'Cations'
p6517
aS'Ca2+'
p6518
aS'29108'
p6519
aS'Known\n'
p6520
asS'1.A.4.2.8'
p6521
(lp6522
S'Q9Y5S1'
p6523
aS'Inorganic'
p6524
aS'Cations'
p6525
aS'Ca2+'
p6526
aS'29108'
p6527
aS'Known\n'
p6528
asS'2.A.28.2.3'
p6529
(lp6530
S'Q1EBV7'
p6531
aS'Organic'
p6532
aS'Carboxylates'
p6533
aS'Pyruvate'
p6534
aS'15361'
p6535
aS'Known'
p6536
aS'Y\n'
p6537
asS'2.A.28.2.2'
p6538
(lp6539
S'E0D3H5'
p6540
aS'Organic'
p6541
aS'Carboxylates'
p6542
aS'Pyruvate'
p6543
aS'15361'
p6544
aS'Known'
p6545
aS'Y\n'
p6546
asS'1.A.4.2.3'
p6547
(lp6548
S'Q9XSM3'
p6549
aS'Inorganic'
p6550
aS'Cations'
p6551
aS'Ca2+'
p6552
aS'29108'
p6553
aS'Known\n'
p6554
asS'1.A.4.2.2'
p6555
(lp6556
S'Q9Z182'
p6557
aS'Inorganic'
p6558
aS'Cations'
p6559
aS'Cations'
p6560
aS'36916'
p6561
aS'Known\n'
p6562
asS'1.A.4.2.1'
p6563
(lp6564
S'O35433'
p6565
aS'Inorganic'
p6566
aS'Cations'
p6567
aS'Ca2+'
p6568
aS'29108'
p6569
aS'Known\n'
p6570
asS'2.A.38.4.5'
p6571
(lp6572
S'P73948'
p6573
aS'Inorganic'
p6574
aS'Cations'
p6575
aS'K+'
p6576
aS'29103'
p6577
aS'Known'
p6578
aS'Y\n'
p6579
asS'1.A.4.2.7'
p6580
(lp6581
S'Q9R186'
p6582
aS'Inorganic'
p6583
aS'Cations'
p6584
aS'"Ca2+, Sr2+, Ba2+"'
p6585
aS'"29108, 35104, 37136"'
p6586
aS'Known\n'
p6587
asS'1.A.4.2.6'
p6588
(lp6589
S'Q9JJJ0'
p6590
aS'Inorganic'
p6591
aS'Cations'
p6592
aS'Ca2+'
p6593
aS'29108'
p6594
aS'Predicted\n'
p6595
asS'2.A.102.4.5'
p6596
(lp6597
S'C7D7I4'
p6598
aS'Inorganic'
p6599
aS'Anions'
p6600
aS'Sulfite'
p6601
aS'17359'
p6602
aS'Predicted'
p6603
aS'Y\n'
p6604
asS'1.A.4.2.4'
p6605
(lp6606
S'Q9WTR1'
p6607
aS'Inorganic'
p6608
aS'Cations'
p6609
aS'Ca2+'
p6610
aS'29108'
p6611
aS'Known\n'
p6612
asS'2.A.3.3.14'
p6613
(lp6614
S'Q8W4K3'
p6615
aS'Organic'
p6616
aS'Amino acids and derivatives'
p6617
aS'Amino acids'
p6618
aS'33709'
p6619
aS'Known\n'
p6620
asS'3.B.1.1.1'
p6621
(lp6622
S'Q03032'
p6623
aS'Inorganic'
p6624
aS'Cations'
p6625
aS'Na+'
p6626
aS'29101'
p6627
aS'Known\n'
p6628
asS'1.A.14.2.2'
p6629
(lp6630
S'P0AAC4'
p6631
aS'Organic'
p6632
aS'Carboxylates'
p6633
aS'Acetate'
p6634
aS'30089'
p6635
aS'Predicted\n'
p6636
asS'2.A.1.10.2'
p6637
(lp6638
S'P45562'
p6639
aS'Organic'
p6640
aS'Nucleosides'
p6641
aS'"Xanthosine, inosine, adenosine, cytidine, thymidine"'
p6642
aS'"18107, 16750, 16335, 17562, 17748"'
p6643
aS'Known\n'
p6644
asS'2.A.1.10.1'
p6645
(lp6646
S'P0AFF4'
p6647
aS'Organic'
p6648
aS'Nucleosides'
p6649
aS'"Guanosine, inosine, cytidine, thymidine"'
p6650
aS'"16750, 17596, 17562, 17748"'
p6651
aS'Known\n'
p6652
asS'1.A.33.1.2'
p6653
(lp6654
S'P0A6Y8'
p6655
aS'Inorganic'
p6656
aS'Ions'
p6657
aS'Ions'
p6658
aS'24870'
p6659
aS'Predicted\n'
p6660
asS'2.A.1.7.6'
p6661
(lp6662
S'Q07W00'
p6663
aS'Organic'
p6664
aS'Sugars'
p6665
aS'Sucrose'
p6666
aS'17992'
p6667
aS'Predicted\n'
p6668
asS'2.A.1.10.4'
p6669
(lp6670
S'P76417'
p6671
aS'Organic'
p6672
aS'Nucleosides'
p6673
aS'Ribonucleosides'
p6674
aS'18254'
p6675
aS'Predicted\n'
p6676
asS'2.A.21.3.10'
p6677
(lp6678
S'Q8ZQ35'
p6679
aS'Organic'
p6680
aS'Sugar derivatives'
p6681
aS'Sialic acid'
p6682
aS'26667'
p6683
aS'Known\n'
p6684
asS'2.A.1.1.15'
p6685
(lp6686
S'P95908'
p6687
aS'Organic'
p6688
aS'Sugars'
p6689
aS'Sugars'
p6690
aS'16646'
p6691
aS'Predicted\n'
p6692
asS'2.A.1.1.16'
p6693
(lp6694
S'Q01441'
p6695
aS'Organic'
p6696
aS'Sugars'
p6697
aS'Hexoses'
p6698
aS'18133'
p6699
aS'Predicted\n'
p6700
asS'2.A.1.1.17'
p6701
(lp6702
S'P10870'
p6703
aS'Organic'
p6704
aS'Sugars'
p6705
aS'Glucose'
p6706
aS'17234'
p6707
aS'Known\n'
p6708
asS'2.A.1.1.10'
p6709
(lp6710
S'P15685'
p6711
aS'Organic'
p6712
aS'Sugars'
p6713
aS'"Maltotriose, maltose"'
p6714
aS'"61993, 17306"'
p6715
aS'Known\n'
p6716
asS'2.A.1.1.11'
p6717
(lp6718
S'P53048'
p6719
aS'Organic'
p6720
aS'Sugars'
p6721
aS'_-Glucosides'
p6722
aS'60979'
p6723
aS'Known\n'
p6724
asS'2.A.1.1.12'
p6725
(lp6726
S'Q07647'
p6727
aS'Organic'
p6728
aS'Sugars'
p6729
aS'Glucose'
p6730
aS'17234'
p6731
aS'Known\n'
p6732
asS'2.A.1.1.13'
p6733
(lp6734
S'P22732'
p6735
aS'Organic'
p6736
aS'Sugars'
p6737
aS'Fructose'
p6738
aS'28757'
p6739
aS'Known\n'
p6740
asS'2.A.16.4.2'
p6741
(lp6742
S'A3R044'
p6743
aS'Inorganic'
p6744
aS'Anions'
p6745
aS'Sulfite'
p6746
aS'17359'
p6747
aS'Known'
p6748
aS'Y\n'
p6749
asS'3.A.1.20.1'
p6750
(lp6751
S'Q9Z4R9'
p6752
aS'Inorganic'
p6753
aS'Cations'
p6754
aS'Fe3+'
p6755
aS'29034'
p6756
aS'Predicted\n'
p6757
asS'2.A.29.14.4'
p6758
(lp6759
S'Q12482'
p6760
aS'Organic'
p6761
aS'Carboxylates'
p6762
aS'"Glutamate, aspartate"'
p6763
aS'"29987, 29995"'
p6764
aS'Known'
p6765
aS'Y\n'
p6766
asS'2.A.1.1.18'
p6767
(lp6768
S'Q06222'
p6769
aS'Organic'
p6770
aS'Sugars'
p6771
aS'"Glucose, mannose, fructose"'
p6772
aS'"17234, 37684, 28757"'
p6773
aS'Known\n'
p6774
asS'2.A.1.1.19'
p6775
(lp6776
S'Q12300'
p6777
aS'Organic'
p6778
aS'Sugars'
p6779
aS'Glucose'
p6780
aS'17234'
p6781
aS'Known\n'
p6782
asS'2.A.16.4.3'
p6783
(lp6784
S'Q2TJJ2'
p6785
aS'Inorganic'
p6786
aS'Anions'
p6787
aS'Sulfite'
p6788
aS'17359'
p6789
aS'Known'
p6790
aS'Y\n'
p6791
asS'2.A.29.14.1'
p6792
(lp6793
S'O75746'
p6794
aS'Organic'
p6795
aS'Carboxylates'
p6796
aS'"Glutamate, aspartate"'
p6797
aS'"29987, 29995"'
p6798
aS'Known'
p6799
aS'Y\n'
p6800
asS'3.A.1.20.3'
p6801
(lp6802
S'M4VB92'
p6803
aS'Inorganic'
p6804
aS'Cations'
p6805
aS'Fe3+'
p6806
aS'29034'
p6807
aS'Predicted\n'
p6808
asS'3.A.1.3.10'
p6809
(lp6810
S'P0AFT2'
p6811
aS'Organic'
p6812
aS'Amino acids and derivatives'
p6813
aS'"Cysteine, DAP"'
p6814
aS'"15356, 30308"'
p6815
aS'Predicted\n'
p6816
asS'2.A.3.2.8'
p6817
(lp6818
S'P0AAE5'
p6819
aS'Organic'
p6820
aS'Amino acids and derivatives'
p6821
aS'Arginine'
p6822
aS'29016'
p6823
aS'Predicted\n'
p6824
asS'3.A.1.20.2'
p6825
(lp6826
S'Q9KLQ5'
p6827
aS'Organic'
p6828
aS'Sugars'
p6829
aS'Hexose phosphate'
p6830
aS'47878'
p6831
aS'Predicted\n'
p6832
asS'3.A.1.3.13'
p6833
(lp6834
S'O34931'
p6835
aS'Organic'
p6836
aS'Amino acids and derivatives'
p6837
aS'"Cystathionine, djenkolate, S-methylcysteine"'
p6838
aS'"17755, 6211, 45658"'
p6839
aS'Known\n'
p6840
asS'3.A.1.5.35'
p6841
(lp6842
S'Q9F349'
p6843
aS'Organic'
p6844
aS'Peptides'
p6845
aS'Peptides'
p6846
aS'16670'
p6847
aS'Predicted\n'
p6848
asS'3.A.1.5.34'
p6849
(lp6850
S'O86575'
p6851
aS'Organic'
p6852
aS'Peptides'
p6853
aS'Oligopeptides'
p6854
aS'25676'
p6855
aS'Predicted\n'
p6856
asS'3.A.1.5.37'
p6857
(lp6858
S'B1W1L8'
p6859
aS'Organic'
p6860
aS'Peptides'
p6861
aS'Oligopeptides'
p6862
aS'25676'
p6863
aS'Predicted\n'
p6864
asS'3.A.1.5.36'
p6865
(lp6866
S'Q8CJS2'
p6867
aS'Organic'
p6868
aS'Peptides'
p6869
aS'Peptides'
p6870
aS'16670'
p6871
aS'Predicted\n'
p6872
asS'3.A.1.5.31'
p6873
(lp6874
S'Q9X0S4'
p6875
aS'Organic'
p6876
aS'Sugars'
p6877
aS'Galactosides'
p6878
aS'24163'
p6879
aS'Predicted\n'
p6880
asS'2.A.34.1.1'
p6881
(lp6882
S'P0AFA7'
p6883
aS'Inorganic'
p6884
aS'Cations'
p6885
aS'Na+'
p6886
aS'29101'
p6887
aS'Known'
p6888
aS'Y\n'
p6889
asS'3.A.1.5.32'
p6890
(lp6891
S'F0TFT0'
p6892
aS'Organic'
p6893
aS'Sugars'
p6894
aS'_-Galactosides'
p6895
aS'75776'
p6896
aS'Predicted\n'
p6897
asS'2.A.86.1.4'
p6898
(lp6899
S'P0AFS5'
p6900
aS'Organic'
p6901
aS'Sugar derivatives'
p6902
aS'Autoinducer-2'
p6903
aS'40646'
p6904
aS'Known'
p6905
aS'Y\n'
p6906
asS'3.A.1.8.2'
p6907
(lp6908
S'P37329'
p6909
aS'Inorganic'
p6910
aS'Anions'
p6911
aS'Molybdate'
p6912
aS'36264'
p6913
aS'Known\n'
p6914
asS'3.A.1.5.38'
p6915
(lp6916
S'P77622'
p6917
aS'Organic'
p6918
aS'Peptides'
p6919
aS'Di-alanine'
p6920
aS'6211'
p6921
aS'Predicted'
p6922
ag578
ag578
ag578
ag578
ag578
ag578
ag578
ag578
ag578
ag578
ag578
ag578
ag578
ag578
ag578
ag578
asS'5.B.1.1.5'
p6923
(lp6924
S'Q96PH1'
p6925
aS'Inorganic'
p6926
aS'Electrons'
p6927
aS'Electrons'
p6928
aS'10545'
p6929
aS'Known\n'
p6930
asS'2.A.1.1.50'
p6931
(lp6932
S'Q94AZ2'
p6933
aS'Organic'
p6934
aS'Sugars'
p6935
aS'"Glucose, fructose"'
p6936
aS'"17234, 28757"'
p6937
aS'Known\n'
p6938
asS'2.A.1.2.26'
p6939
(lp6940
S'P0ADL1'
p6941
aS'Organic'
p6942
aS'Nucleosides'
p6943
aS'Purine'
p6944
aS'35584'
p6945
aS'Known\n'
p6946
asS'1.A.1.16.1'
p6947
(lp6948
S'Q9H2S1'
p6949
aS'Inorganic'
p6950
aS'Cations'
p6951
aS'K+'
p6952
aS'29103'
p6953
aS'Known\n'
p6954
asS'2.A.1.7.8'
p6955
(lp6956
S'Q8EBL0'
p6957
aS'Organic'
p6958
aS'Sugar derivatives'
p6959
aS'N-acetylglucosamine'
p6960
aS'59640'
p6961
aS'Predicted\n'
p6962
asS'2.A.1.8.15'
p6963
(lp6964
S'O33854'
p6965
aS'Inorganic'
p6966
aS'Anions'
p6967
aS'Nitrate'
p6968
aS'17632'
p6969
aS'Predicted\n'
p6970
asS'2.A.1.8.14'
p6971
(lp6972
S'Q9RA38'
p6973
aS'Inorganic'
p6974
aS'Anions'
p6975
aS'"Nitrite, nitrate"'
p6976
aS'"16301, 17632"'
p6977
aS'Predicted\n'
p6978
asS'2.A.1.8.13'
p6979
(lp6980
S'Q8X193'
p6981
aS'Inorganic'
p6982
aS'Anions'
p6983
aS'"Nitrite, nitrate"'
p6984
aS'"16301, 17632"'
p6985
aS'Predicted\n'
p6986
asS'2.A.1.8.12'
p6987
(lp6988
S'O82811'
p6989
aS'Inorganic'
p6990
aS'Anions'
p6991
aS'Nitrate'
p6992
aS'17632'
p6993
aS'Known\n'
p6994
asS'2.A.1.8.11'
p6995
(lp6996
S'Q93PW1'
p6997
aS'Inorganic'
p6998
aS'Anions'
p6999
aS'"Nitrite, nitrate"'
p7000
aS'"16301, 17632"'
p7001
aS'Predicted\n'
p7002
asS'1.B.22.4.2'
p7003
(lp7004
S'Q1R5P6'
p7005
aS'Macromolecules'
p7006
aS'Nucleic acids'
p7007
aS'DNA'
p7008
aS'4705'
p7009
aS'Predicted'
p7010
aS'Y\n'
p7011
asS'1.A.4.7.1'
p7012
(lp7013
S'Q7T1G6'
p7014
aS'Inorganic'
p7015
aS'Cations'
p7016
aS'Ca2+'
p7017
aS'29108'
p7018
aS'Predicted\n'
p7019
asS'3.A.1.105.2'
p7020
(lp7021
S'Q53717'
p7022
aS'Organic'
p7023
aS'Drugs'
p7024
aS'Oleandomycin'
p7025
aS'16869'
p7026
aS'Predicted\n'
p7027
asS'2.A.1.38.1'
p7028
(lp7029
S'P24077'
p7030
aS'Organic'
p7031
aS'Siderophores'
p7032
aS'Enterobactin'
p7033
aS'28855'
p7034
aS'Known\n'
p7035
asS'2.A.1.1.54'
p7036
(lp7037
S'Q8NL90'
p7038
aS'Organic'
p7039
aS'Sugar alcohols'
p7040
aS'Myo-inositol'
p7041
aS'17268'
p7042
aS'Predicted\n'
p7043
asS'2.A.1.38.3'
p7044
(lp7045
S'Q8ZR35'
p7046
aS'Organic'
p7047
aS'Siderophore'
p7048
aS'Enterobactin'
p7049
aS'28855'
p7050
aS'Known\n'
p7051
asS'3.A.1.1.25'
p7052
(lp7053
S'Q72L52'
p7054
aS'Organic'
p7055
aS'Sugars'
p7056
aS'"Trehalose, maltose, sucrose, palatinose"'
p7057
aS'"27082, 17306, 17992, 18394"'
p7058
aS'Predicted\n'
p7059
asS'2.A.47.3.1'
p7060
(lp7061
S'Q41364'
p7062
aS'Organic'
p7063
aS'Carboxylates'
p7064
aS'2-oxoglutarate'
p7065
aS'16810'
p7066
aS'Known'
p7067
aS'Y\n'
p7068
asS'2.A.1.1.83'
p7069
(lp7070
S'Q7SD12'
p7071
aS'Organic'
p7072
aS'Sugars'
p7073
aS'"Cellobiose, celldextrin"'
p7074
aS'"17057, 3523"'
p7075
aS'Predicted\n'
p7076
asS'2.A.1.1.2'
p7077
(lp7078
S'P0AE24'
p7079
aS'Organic'
p7080
aS'Sugars'
p7081
aS'Arabinose'
p7082
aS'22599'
p7083
aS'Known\n'
p7084
asS'2.A.38.1.1'
p7085
(lp7086
S'P0AFZ7'
p7087
aS'Inorganic'
p7088
aS'Cations'
p7089
aS'K+'
p7090
aS'29103'
p7091
aS'Known'
p7092
aS'Y\n'
p7093
asS'2.A.1.1.80'
p7094
(lp7095
S'P14672'
p7096
aS'Organic'
p7097
aS'Sugars'
p7098
aS'Glucose'
p7099
aS'17234'
p7100
aS'Known\n'
p7101
asS'1.A.1.2.21'
p7102
(lp7103
S'Q95XD1'
p7104
aS'Inorganic'
p7105
aS'Cations'
p7106
aS'K+'
p7107
aS'29103'
p7108
aS'Known\n'
p7109
asS'2.A.38.1.6'
p7110
(lp7111
S'P23849'
p7112
aS'Inorganic'
p7113
aS'Cations'
p7114
aS'K+'
p7115
aS'29103'
p7116
aS'Known'
p7117
aS'Y\n'
p7118
asS'2.A.1.1.85'
p7119
(lp7120
S'A8KB28'
p7121
aS'Organic'
p7122
aS'Sugars'
p7123
aS'Glucose'
p7124
aS'17234'
p7125
aS'Known\n'
p7126
asS'2.A.1.17.1'
p7127
(lp7128
S'P17583'
p7129
aS'Inorganic'
p7130
aS'Anions'
p7131
aS'Cyanate'
p7132
aS'29195'
p7133
aS'Predicted\n'
p7134
asS'4.A.5.1.1'
p7135
(lp7136
S'P69828'
p7137
aS'Organic'
p7138
aS'Sugar alcohols'
p7139
aS'Galactitol'
p7140
aS'16813'
p7141
aS'Known\n'
p7142
asS'2.A.1.1.89'
p7143
(lp7144
S'Q9NY64'
p7145
aS'Organic'
p7146
aS'Sugars'
p7147
aS'Glucose'
p7148
aS'17234'
p7149
aS'Known'
p7150
aS'Y\n'
p7151
asS'4.A.5.1.3'
p7152
(lp7153
S'P39363'
p7154
aS'Organic'
p7155
aS'Sugar alcohols'
p7156
aS'Pentitols'
p7157
aS'25899'
p7158
aS'Known\n'
p7159
asS'3.A.1.2.1'
p7160
(lp7161
S'P04983'
p7162
aS'Organic'
p7163
aS'Sugars'
p7164
aS'Ribose'
p7165
aS'33942'
p7166
aS'Known\n'
p7167
asS'1.A.5.1.3'
p7168
(lp7169
S'Q9P0L9'
p7170
aS'Inorganic'
p7171
aS'Cations'
p7172
aS'Ca2+'
p7173
aS'29108'
p7174
aS'Known\n'
p7175
asS'1.A.5.1.2'
p7176
(lp7177
S'Q7Z443'
p7178
aS'Inorganic'
p7179
aS'Cations'
p7180
aS'Ca2+'
p7181
aS'29108'
p7182
aS'Known\n'
p7183
asS'2.A.1.1.58'
p7184
(lp7185
S'Q8J0U9'
p7186
aS'Organic'
p7187
aS'Sugars'
p7188
aS'Glucose'
p7189
aS'17234'
p7190
aS'Predicted\n'
p7191
asS'2.A.1.17.3'
p7192
(lp7193
S'P76242'
p7194
aS'Inorganic'
p7195
aS'Anions'
p7196
aS'Cyanate'
p7197
aS'29195'
p7198
aS'Predicted\n'
p7199
asS'2.A.1.1.52'
p7200
(lp7201
S'Q26579'
p7202
aS'Organic'
p7203
aS'Sugars'
p7204
aS'Glucose'
p7205
aS'17234'
p7206
aS'Predicted\n'
p7207
asS'2.A.1.6.1'
p7208
(lp7209
S'P16482'
p7210
aS'Organic'
p7211
aS'Carboxylates'
p7212
aS'Citrate'
p7213
aS'35808'
p7214
aS'Predicted\n'
p7215
asS'1.A.1.29.1'
p7216
(lp7217
S'P06550'
p7218
aS'Inorganic'
p7219
aS'Cations'
p7220
aS'K+'
p7221
aS'29103'
p7222
aS'Predicted\n'
p7223
asS'2.A.1.13.12'
p7224
(lp7225
S'Q7RTX9'
p7226
aS'Organic'
p7227
aS'Carboxylates'
p7228
aS'Carnitine'
p7229
aS'17126'
p7230
aS'Known'
p7231
aS'Y\n'
p7232
asS'1.A.1.29.5'
p7233
(lp7234
S'M0MYF1'
p7235
aS'Inorganic'
p7236
aS'Ions'
p7237
aS'Ions'
p7238
ag578
aS'Predicted\n'
p7239
asS'1.A.4.6.6'
p7240
(lp7241
S'Q9VHY7'
p7242
aS'Inorganic'
p7243
aS'Cations'
p7244
aS'Ca2+'
p7245
aS'29108'
p7246
aS'Predicted\n'
p7247
asS'1.A.4.6.5'
p7248
(lp7249
S'Q18297'
p7250
aS'Inorganic'
p7251
aS'Cations'
p7252
aS'Ca2+'
p7253
aS'29108'
p7254
aS'Known\n'
p7255
asS'1.A.4.6.4'
p7256
(lp7257
S'Q9W0T5'
p7258
aS'Inorganic'
p7259
aS'Cations'
p7260
aS'Cations'
p7261
aS'36916'
p7262
aS'Known\n'
p7263
asS'2.A.6.2.6'
p7264
(lp7265
S'P52002'
p7266
aS'Organic'
p7267
aS'Sugar derivatives'
p7268
aS'N-(3-oxododecanoyl)-L-homoserine lactone autoinducer'
p7269
aS'44534'
p7270
aS'Known'
p7271
aS'Y\n'
p7272
asS'1.A.16.2.4'
p7273
(lp7274
S'Q9LE25'
p7275
aS'Inorganic'
p7276
aS'Anions'
p7277
aS'NO2-'
p7278
aS'16301'
p7279
aS'Known'
p7280
aS'Y\n'
p7281
asS'1.A.4.6.1'
p7282
(lp7283
S'Q8BLA8'
p7284
aS'Inorganic'
p7285
aS'Cations'
p7286
aS'"K+, Ca2+"'
p7287
aS'"29103, 29108"'
p7288
aS'Known\n'
p7289
asS'1.A.2.1.8'
p7290
(lp7291
S'O60928'
p7292
aS'Inorganic'
p7293
aS'Cations'
p7294
aS'K+'
p7295
aS'29103'
p7296
aS'Known\n'
p7297
asS'2.A.108.1.6'
p7298
(lp7299
S'Q8LL16'
p7300
aS'Inorganic'
p7301
aS'Cations'
p7302
aS'Fe2+'
p7303
aS'29033'
p7304
aS'Known'
p7305
aS'Y\n'
p7306
asS'3.A.1.3.24'
p7307
(lp7308
S'Q9HU29'
p7309
aS'Organic'
p7310
aS'Amino acids and derivatives'
p7311
aS'Amino acids'
p7312
aS'33709'
p7313
aS'Predicted\n'
p7314
asS'3.A.1.3.25'
p7315
(lp7316
S'Q9CES5'
p7317
aS'Organic'
p7318
aS'Amino acids and derivatives'
p7319
aS'"Glutamine, asparagine, glutamate"'
p7320
aS'"28300, 22653, 29987"'
p7321
aS'Predicted\n'
p7322
asS'3.A.1.3.26'
p7323
(lp7324
S'P45769'
p7325
aS'Organic'
p7326
aS'Amino acids and derivatives'
p7327
aS'Polar amino acids'
p7328
aS'62031'
p7329
aS'Predicted\n'
p7330
asS'3.A.1.3.27'
p7331
(lp7332
S'Q8RCC4'
p7333
aS'Organic'
p7334
aS'Amino acids and derivatives'
p7335
aS'"Glutamine, asparagine, glutamate"'
p7336
aS'"28300, 22653, 29987"'
p7337
aS'Predicted'
p7338
ag578
ag578
ag578
ag578
ag578
ag578
ag578
ag578
ag578
ag578
ag578
ag578
ag578
ag578
ag578
ag578
asS'3.A.1.3.20'
p7339
(lp7340
S'Q9A1H1'
p7341
aS'Organic'
p7342
aS'Amino acids and derivatives'
p7343
aS'Lysine'
p7344
aS'25094'
p7345
aS'Predicted\n'
p7346
asS'3.A.1.3.21'
p7347
(lp7348
S'Q9I484'
p7349
aS'Organic'
p7350
aS'Amino acids and derivatives'
p7351
aS'Hydroxyproline'
p7352
aS'24741'
p7353
aS'Predicted\n'
p7354
asS'3.A.1.3.22'
p7355
(lp7356
S'Q9I405'
p7357
aS'Organic'
p7358
aS'Amino acids and derivatives'
p7359
aS'"Glutamic acid, glutamine, N-acetylglutamic acid"'
p7360
aS'"18237, 28300, 17533"'
p7361
aS'Predicted\n'
p7362
asS'3.A.1.3.23'
p7363
(lp7364
S'Q9HU32'
p7365
aS'Organic'
p7366
aS'Amino acids and derivatives'
p7367
aS'"Lysine, arginine, histdine, alanine, valine"'
p7368
aS'"53558, 29016, 27570, 16449, 27266"'
p7369
aS'Predicted\n'
p7370
asS'5.A.3.4.1'
p7371
(lp7372
S'P36662'
p7373
aS'Inorganic'
p7374
aS'Electrons'
p7375
aS'Electrons'
p7376
aS'10545'
p7377
aS'Known\n'
p7378
asS'3.A.1.3.28'
p7379
(lp7380
S'B8F898'
p7381
aS'Organic'
p7382
aS'Amino acids and derivatives'
p7383
aS'Amino acids'
p7384
aS'33709'
p7385
aS'Predicted\n'
p7386
asS'3.A.1.3.29'
p7387
(lp7388
S'P0AEU3'
p7389
aS'Organic'
p7390
aS'Amino acids and derivatives'
p7391
aS'"Histidine, arginine, lysine"'
p7392
aS'"27570, 53558"'
p7393
aS'Known\n'
p7394
asS'2.A.1.2.39'
p7395
(lp7396
S'Q5JAK9'
p7397
aS'Organic'
p7398
aS'Drugs'
p7399
aS'Tetracycline'
p7400
aS'27902'
p7401
aS'Known'
p7402
aS'Y\n'
p7403
asS'2.A.1.1.104'
p7404
(lp7405
S'P30606'
p7406
aS'Organic'
p7407
aS'Sugar alcohols'
p7408
aS'Myo-inositol'
p7409
aS'17268'
p7410
aS'Known\n'
p7411
asS'3.A.1.2.16'
p7412
(lp7413
S'Q1M4Q8'
p7414
aS'Organic'
p7415
aS'Sugar alcohols'
p7416
aS'Erythritol'
p7417
aS'17113'
p7418
aS'Known\n'
p7419
asS'3.A.1.2.17'
p7420
(lp7421
S'A2RKA5'
p7422
aS'Organic'
p7423
aS'Nucleosides'
p7424
aS'Nucleosides'
p7425
aS'33838'
p7426
aS'Predicted\n'
p7427
asS'3.A.1.2.14'
p7428
(lp7429
S'Q0HIQ7'
p7430
aS'Organic'
p7431
aS'Sugars'
p7432
aS'Arabinose'
p7433
aS'22599'
p7434
aS'Predicted\n'
p7435
asS'3.A.1.2.15'
p7436
(lp7437
S'A8H4W7'
p7438
aS'Organic'
p7439
aS'Sugar alcohols'
p7440
aS'Xylitol'
p7441
aS'17151'
p7442
aS'Predicted\n'
p7443
asS'3.A.1.2.12'
p7444
(lp7445
S'Q8DU39'
p7446
aS'Organic'
p7447
aS'Nucleosides'
p7448
aS'Deoxyribonucleosides'
p7449
aS'23636'
p7450
aS'Predicted\n'
p7451
asS'3.A.1.2.13'
p7452
(lp7453
S'A6VKT0'
p7454
aS'Organic'
p7455
aS'Sugar derivatives'
p7456
aS'Autoinducer-2'
p7457
aS'40646'
p7458
aS'Predicted'
p7459
aS'Y\n'
p7460
asS'3.A.1.2.10'
p7461
(lp7462
S'P29724'
p7463
aS'Organic'
p7464
aS'Nucleosides'
p7465
aS'"Guanosine, adenosine, 2\'-deoxyguanosine, inosine, xanthosine"'
p7466
aS'"16750, 16335, 17172, 17596, 18107"'
p7467
aS'Known\n'
p7468
asS'2.A.1.1.111'
p7469
(lp7470
S'P23585'
p7471
aS'Organic'
p7472
aS'Sugars'
p7473
aS'Glucose'
p7474
aS'17234'
p7475
aS'Known\n'
p7476
asS'2.A.1.46.6'
p7477
(lp7478
S'P77549'
p7479
aS'Organic'
p7480
aS'Sugars'
p7481
aS'Arabinose'
p7482
aS'22599'
p7483
aS'Known\n'
p7484
asS'1.A.1.5.22'
p7485
(lp7486
S'O96386'
p7487
aS'Inorganic'
p7488
aS'Cations'
p7489
aS'K+'
p7490
aS'29103'
p7491
aS'Predicted\n'
p7492
asS'1.A.1.5.23'
p7493
(lp7494
S'Q9LDR2'
p7495
aS'Inorganic'
p7496
aS'Cations'
p7497
aS'Na+'
p7498
aS'29101'
p7499
aS'Known\n'
p7500
asS'1.A.1.5.24'
p7501
(lp7502
S'Q9LD37'
p7503
aS'Inorganic'
p7504
aS'Cations'
p7505
aS'Na+'
p7506
aS'29101'
p7507
aS'Known\n'
p7508
asS'2.A.19.1.1'
p7509
(lp7510
S'P31801'
p7511
aS'Inorganic'
p7512
aS'Cations'
p7513
aS'"Ca2+, Na+, K+"'
p7514
aS'"29108, 29101, 29103"'
p7515
aS'Known'
p7516
aS'Y\n'
p7517
asS'3.A.1.2.18'
p7518
(lp7519
S'Q9WXW0'
p7520
aS'Organic'
p7521
aS'Sugars'
p7522
aS'Xylose'
p7523
aS'18222'
p7524
aS'Predicted\n'
p7525
asS'3.A.1.2.19'
p7526
(lp7527
S'Q9X050'
p7528
aS'Organic'
p7529
aS'Sugars'
p7530
aS'Ribose'
p7531
aS'33942'
p7532
aS'Predicted\n'
p7533
asS'1.A.2.1.2'
p7534
(lp7535
S'P63252'
p7536
aS'Inorganic'
p7537
aS'Cations'
p7538
aS'K+'
p7539
aS'29103'
p7540
aS'Known\n'
p7541
asS'1.A.1.14.1'
p7542
(lp7543
S'Q9KCR8'
p7544
aS'Inorganic'
p7545
aS'Cations'
p7546
aS'Na+'
p7547
aS'29101'
p7548
aS'Predicted\n'
p7549
asS'2.A.1.7.18'
p7550
(lp7551
S'Q89YS8'
p7552
aS'Organic'
p7553
aS'Sugar derivatives'
p7554
aS'N-acetylglucosamine'
p7555
aS'59640'
p7556
aS'Predicted\n'
p7557
asS'2.A.1.7.19'
p7558
(lp7559
S'F8L1F5'
p7560
aS'Organic'
p7561
aS'Sugars'
p7562
aS'Glucose'
p7563
aS'17234'
p7564
aS'Predicted\n'
p7565
asS'2.A.1.7.16'
p7566
(lp7567
S'Q8A5Y0'
p7568
aS'Organic'
p7569
aS'Sugars'
p7570
aS'Mannose'
p7571
aS'37684'
p7572
aS'Predicted\n'
p7573
asS'2.A.1.7.17'
p7574
(lp7575
S'Q8A6W8'
p7576
aS'Organic'
p7577
aS'Sugars'
p7578
aS'Fructose'
p7579
aS'28757'
p7580
aS'Predicted\n'
p7581
asS'1.A.1.4.10'
p7582
(lp7583
S'A5PH36'
p7584
aS'Inorganic'
p7585
aS'Cations'
p7586
aS'K+'
p7587
aS'29103'
p7588
aS'Known\n'
p7589
asS'1.A.1.4.11'
p7590
(lp7591
S'A8J968'
p7592
aS'Inorganic'
p7593
aS'Cations'
p7594
aS'K+'
p7595
aS'29103'
p7596
aS'Predicted\n'
p7597
asS'2.A.1.7.12'
p7598
(lp7599
S'Q07XD1'
p7600
aS'Organic'
p7601
aS'Sugars'
p7602
aS'Trehalose'
p7603
aS'27082'
p7604
aS'Predicted\n'
p7605
asS'2.A.1.7.10'
p7606
(lp7607
S'A1S5F4'
p7608
aS'Organic'
p7609
aS'Sugars'
p7610
aS'Glucose'
p7611
aS'17234'
p7612
aS'Predicted\n'
p7613
asS'2.A.1.7.11'
p7614
(lp7615
S'A1S297'
p7616
aS'Organic'
p7617
aS'Sugars'
p7618
aS'Mannose'
p7619
aS'37684'
p7620
aS'Predicted\n'
p7621
asS'2.A.1.7.2'
p7622
(lp7623
S'P0C105'
p7624
aS'Organic'
p7625
aS'Sugars'
p7626
aS'"Glucose, galactose"'
p7627
aS'"17234, 28260"'
p7628
aS'Predicted\n'
p7629
asS'1.A.1.14.4'
p7630
(lp7631
S'Q6TMY8'
p7632
aS'Inorganic'
p7633
aS'Cations'
p7634
aS'Na+'
p7635
aS'29101'
p7636
aS'Predicted\n'
p7637
asS'3.A.1.14.4'
p7638
(lp7639
S'Q47087'
p7640
aS'Organic'
p7641
aS'Siderophores'
p7642
aS'Fe3+-chrysobactin'
p7643
aS'61345'
p7644
aS'Known\n'
p7645
asS'3.A.1.5.8'
p7646
(lp7647
S'Q97UG7'
p7648
aS'Organic'
p7649
aS'Sugars'
p7650
aS'"Maltose, maltooligosaccharides"'
p7651
aS'"17306, 17593"'
p7652
aS'Predicted\n'
p7653
asS'3.A.1.5.7'
p7654
(lp7655
S'Q9X4Y1'
p7656
aS'Organic'
p7657
aS'Sugars'
p7658
aS'_-Galactosides'
p7659
aS'52224'
p7660
aS'Predicted\n'
p7661
asS'3.A.1.5.6'
p7662
(lp7663
S'Q8U1J8'
p7664
aS'Organic'
p7665
aS'Sugars'
p7666
aS'_-Glucosides'
p7667
aS'60980'
p7668
aS'Predicted\n'
p7669
asS'3.A.1.5.5'
p7670
(lp7671
S'P36638'
p7672
aS'Organic'
p7673
aS'Peptides'
p7674
aS'Cationic peptides'
p7675
aS'134400'
p7676
aS'Known\n'
p7677
asS'3.A.1.5.4'
p7678
(lp7679
S'Q52012'
p7680
aS'Organic'
p7681
aS'Amino acids and derivatives'
p7682
aS'Agrocinopine'
p7683
aS'82802'
p7684
aS'Predicted\n'
p7685
asS'3.A.1.5.3'
p7686
(lp7687
S'P33594'
p7688
aS'Inorganic'
p7689
aS'Cations'
p7690
aS'Ni2+'
p7691
aS'49786'
p7692
aS'Known\n'
p7693
asS'3.A.1.5.2'
p7694
(lp7695
S'P26906'
p7696
aS'Organic'
p7697
aS'"Peptides, amino acids and derivatives, siderophores"'
p7698
aS'"Dipeptides, _-aminolevulinic acid, heme"'
p7699
aS'"46761, 17549, 30413"'
p7700
aS'Known\n'
p7701
asS'3.A.1.5.1'
p7702
(lp7703
S'P77348'
p7704
aS'Organic'
p7705
aS'Peptides'
p7706
aS'Oligopeptides'
p7707
aS'25676'
p7708
aS'Known\n'
p7709
asS'3.A.11.1.2'
p7710
(lp7711
S'Q8DQ41'
p7712
aS'Macromolecules'
p7713
aS'Nucleic acids'
p7714
aS'ssDNA'
p7715
aS'9160'
p7716
aS'Known\n'
p7717
asS'1.A.4.5.3'
p7718
(lp7719
S'Q9NZQ8'
p7720
aS'Inorganic'
p7721
aS'Cations'
p7722
aS'Ca2+'
p7723
aS'29108'
p7724
aS'Known\n'
p7725
asS'3.A.1.1.21'
p7726
(lp7727
S'Q9L027'
p7728
aS'Organic'
p7729
aS'Sugars'
p7730
aS'Xylobiose'
p7731
aS'28309'
p7732
aS'Predicted\n'
p7733
asS'1.A.2.1.4'
p7734
(lp7735
S'Q91ZF1'
p7736
aS'Inorganic'
p7737
aS'Cations'
p7738
aS'K+'
p7739
aS'29103'
p7740
aS'Known\n'
p7741
asS'3.A.1.27.1'
p7742
(lp7743
S'A4PCI0'
p7744
aS'Organic'
p7745
aS'Drugs'
p7746
aS'_-Hexachlorocyclohexane'
p7747
aS'32888'
p7748
aS'Predicted\n'
p7749
asS'9.A.8.1.10'
p7750
(lp7751
S'B5XTS6'
p7752
aS'Inorganic'
p7753
aS'Cations'
p7754
aS'Fe2+'
p7755
aS'29033'
p7756
aS'Known\n'
p7757
asS'1.A.2.1.5'
p7758
(lp7759
S'O70596'
p7760
aS'Inorganic'
p7761
aS'Cations'
p7762
aS'K+'
p7763
aS'29103'
p7764
aS'Known\n'
p7765
asS'2.A.36.6.11'
p7766
(lp7767
S'P76007'
p7768
aS'Inorganic'
p7769
aS'Cations'
p7770
aS'Na+'
p7771
aS'29101'
p7772
aS'Known\n'
p7773
asS'3.A.3.2.32'
p7774
(lp7775
S'Q49LV5'
p7776
aS'Inorganic'
p7777
aS'Cations'
p7778
aS'Ca2+'
p7779
aS'29108'
p7780
aS'Known\n'
p7781
asS'5.B.1.3.1'
p7782
(lp7783
S'O81209'
p7784
aS'Inorganic'
p7785
aS'Electrons'
p7786
aS'Electrons'
p7787
aS'10545'
p7788
aS'Known\n'
p7789
asS'3.A.1.1.24'
p7790
(lp7791
S'Q72L52'
p7792
aS'Organic'
p7793
aS'Sugars'
p7794
aS'"Glucose, mannose"'
p7795
aS'"17234, 37684"'
p7796
aS'Predicted\n'
p7797
asS'1.A.1.11.7'
p7798
(lp7799
S'Q9P0X4'
p7800
aS'Inorganic'
p7801
aS'Cations'
p7802
aS'Ca2+'
p7803
aS'29108'
p7804
aS'Known\n'
p7805
asS'2.A.1.14.8'
p7806
(lp7807
S'Q9RPP3'
p7808
aS'Organic'
p7809
aS'Carboxylates'
p7810
aS'Phthalate'
p7811
aS'17563'
p7812
aS'Predicted\n'
p7813
asS'1.A.1.27.1'
p7814
(lp7815
S'O54192'
p7816
aS'Inorganic'
p7817
aS'Ions'
p7818
aS'Ions'
p7819
ag578
aS'Predicted\n'
p7820
asS'1.A.1.27.2'
p7821
(lp7822
S'O86498'
p7823
aS'Inorganic'
p7824
aS'Ions'
p7825
aS'Ions'
p7826
ag578
aS'Predicted\n'
p7827
asS'1.A.43.1.1'
p7828
(lp7829
S'P37002'
p7830
aS'Inorganic'
p7831
aS'Anions'
p7832
aS'"F-, Cl-"'
p7833
aS'17996'
p7834
aS'Known\n'
p7835
asS'1.A.4.5.4'
p7836
(lp7837
S'Q8TD43'
p7838
aS'Inorganic'
p7839
aS'Cations'
p7840
aS'"Na+, K+"'
p7841
aS'"29101, 29103"'
p7842
aS'Known\n'
p7843
asS'3.A.1.10.3'
p7844
(lp7845
S'P71338'
p7846
aS'Inorganic'
p7847
aS'Cations'
p7848
aS'"Fe3+, Ga3+, Al3+"'
p7849
aS'"29034, 84043, 49470"'
p7850
aS'Known\n'
p7851
asS'1.A.16.4.1'
p7852
(lp7853
S'P37327'
p7854
aS'Inorganic'
p7855
aS'Anions'
p7856
aS'Anions'
p7857
aS'22563'
p7858
aS'Predicted\n'
p7859
asS'2.A.66.2.1'
p7860
(lp7861
S'P37746'
p7862
aS'Macromolecules'
p7863
aS'Polysaccharides'
p7864
aS'LPS'
p7865
aS'16412'
p7866
aS'Known'
p7867
aS'Y\n'
p7868
asS'2.A.29.12.3'
p7869
(lp7870
S'P16260'
p7871
aS'Organic'
p7872
aS'Cofactors'
p7873
aS'CoA'
p7874
aS'15346'
p7875
aS'Known'
p7876
aS'Y\n'
p7877
asS'2.A.1.14.5'
p7878
(lp7879
S'Q05181'
p7880
aS'Organic'
p7881
aS'Carboxylates'
p7882
aS'Phthalate'
p7883
aS'17563'
p7884
aS'Predicted\n'
p7885
asS'3.A.1.10.5'
p7886
(lp7887
S'Q56925'
p7888
aS'Organic'
p7889
aS'Siderophores'
p7890
aS'Fe3+-siderophores'
p7891
aS'84734'
p7892
aS'Predicted\n'
p7893
asS'1.A.1.19.3'
p7894
(lp7895
S'E9Q9F6'
p7896
aS'Inorganic'
p7897
aS'Cations'
p7898
aS'Ca2+'
p7899
aS'29108'
p7900
aS'Known\n'
p7901
asS'2.A.1.1.51'
p7902
(lp7903
S'Q2MEV7'
p7904
aS'Organic'
p7905
aS'Sugars'
p7906
aS'"Glucose, xylose"'
p7907
aS'"17234, 18222"'
p7908
aS'Predicted\n'
p7909
asS'1.A.1.19.1'
p7910
(lp7911
S'Q86XQ3'
p7912
aS'Inorganic'
p7913
aS'Cations'
p7914
aS'Ca2+'
p7915
aS'29108'
p7916
aS'Known\n'
p7917
asS'2.A.2.3.2'
p7918
(lp7919
S'P94488'
p7920
aS'Organic'
p7921
aS'Sugars'
p7922
aS'Pentosides'
p7923
aS'35312'
p7924
aS'Predicted\n'
p7925
asS'2.A.3.13.2'
p7926
(lp7927
S'Q8ZKC0'
p7928
aS'Organic'
p7929
aS'Drugs'
p7930
aS'Ceftriaxone'
p7931
aS'29007'
p7932
aS'Known\n'
p7933
asS'2.A.1.1.56'
p7934
(lp7935
S'Q9SFG0'
p7936
aS'Organic'
p7937
aS'Sugars'
p7938
aS'"Glucose, 3-O-methylglucose, mannose, fructose, galactose, xylose, ribulose"'
p7939
aS'"17234, 73918, 37684, 28757, 28260, 18222, 28721"'
p7940
aS'Known'
p7941
aS'Y\n'
p7942
asS'2.A.1.1.57'
p7943
(lp7944
S'Q8J0V1'
p7945
aS'Organic'
p7946
aS'Sugars'
p7947
aS'Sugars'
p7948
aS'16646'
p7949
aS'Predicted\n'
p7950
asS'2.A.53.3.11'
p7951
(lp7952
S'P0AFR2'
p7953
aS'Inorganic'
p7954
aS'Anions'
p7955
aS'HCO3-'
p7956
aS'17544'
p7957
aS'Known'
p7958
aS'Y\n'
p7959
asS'2.A.1.1.59'
p7960
(lp7961
S'O95528'
p7962
aS'Organic'
p7963
aS'Sugars'
p7964
aS'"Glucose, 2-deoxyglucose"'
p7965
aS'"17234, 23623"'
p7966
aS'Known\n'
p7967
asS'2.A.5.1.1'
p7968
(lp7969
S'P32804'
p7970
aS'Inorganic'
p7971
aS'Cations'
p7972
aS'Zn2+'
p7973
aS'29105'
p7974
aS'Known'
p7975
aS'Y\n'
p7976
asS'1.A.4.5.5'
p7977
(lp7978
S'O94759'
p7979
aS'Inorganic'
p7980
aS'Cations'
p7981
aS'"Ca2+, Mg2+"'
p7982
aS'"29108, 29105"'
p7983
aS'Known\n'
p7984
asS'2.A.21.7.2'
p7985
(lp7986
S'P32705'
p7987
aS'Organic'
p7988
aS'Carboxylates'
p7989
aS'"Acetate, glyoxylate"'
p7990
aS'"30089, 36655"'
p7991
aS'Known'
p7992
aS'Y\n'
p7993
asS'1.A.1.11.9'
p7994
(lp7995
S'O55017'
p7996
aS'Inorganic'
p7997
aS'Cations'
p7998
aS'Ca2+'
p7999
aS'29108'
p8000
aS'Known\n'
p8001
asS'1.A.1.11.8'
p8002
(lp8003
S'P54282'
p8004
aS'Inorganic'
p8005
aS'Cations'
p8006
aS'Ca2+'
p8007
aS'29108'
p8008
aS'Known\n'
p8009
asS'2.A.1.14.1'
p8010
(lp8011
S'P42237'
p8012
aS'Organic'
p8013
aS'Carboxylates'
p8014
aS'Glucarate'
p8015
aS'30613'
p8016
aS'Known\n'
p8017
asS'2.A.3.6.2'
p8018
(lp8019
S'Q8TN67'
p8020
aS'Organic'
p8021
aS'Amines'
p8022
aS'Methylamine'
p8023
aS'16830'
p8024
aS'Predicted\n'
p8025
asS'1.A.1.11.3'
p8026
(lp8027
S'Q61290'
p8028
aS'Inorganic'
p8029
aS'Cations'
p8030
aS'Ca2+'
p8031
aS'29108'
p8032
aS'Known\n'
p8033
asS'1.A.1.11.2'
p8034
(lp8035
S'P07293'
p8036
aS'Inorganic'
p8037
aS'Cations'
p8038
aS'Ca2+'
p8039
aS'29108'
p8040
aS'Known\n'
p8041
asS'1.A.1.11.1'
p8042
(lp8043
S'P27732'
p8044
aS'Inorganic'
p8045
aS'Cations'
p8046
aS'"Ca2+, Ba2+, Sr2+"'
p8047
aS'"29108, 37136, 35104"'
p8048
aS'Known\n'
p8049
asS'2.A.2.3.4'
p8050
(lp8051
S'P31435'
p8052
aS'Organic'
p8053
aS'Sugars'
p8054
aS'_-Xylosides'
p8055
aS'27350'
p8056
aS'Predicted\n'
p8057
asS'1.A.1.11.6'
p8058
(lp8059
S'Q01815'
p8060
aS'Inorganic'
p8061
aS'Cations'
p8062
aS'Ca2+'
p8063
aS'29108'
p8064
aS'Known\n'
p8065
asS'1.A.1.11.5'
p8066
(lp8067
S'O95180'
p8068
aS'Inorganic'
p8069
aS'Cations'
p8070
aS'Ca2+'
p8071
aS'29108'
p8072
aS'Known\n'
p8073
asS'1.A.1.11.4'
p8074
(lp8075
S'Q13936'
p8076
aS'Inorganic'
p8077
aS'Cations'
p8078
aS'Ca2+'
p8079
aS'29108'
p8080
aS'Known\n'
p8081
asS'3.A.1.1.3'
p8082
(lp8083
S'P10905'
p8084
aS'Organic'
p8085
aS'Sugar alcohols'
p8086
aS'Glycerol-phosphate'
p8087
aS'60096'
p8088
aS'Known\n'
p8089
asS'3.A.1.1.2'
p8090
(lp8091
S'O07011'
p8092
aS'Organic'
p8093
aS'Sugars'
p8094
aS'Galactooligosaccharides'
p8095
aS'24151'
p8096
aS'Predicted\n'
p8097
asS'3.A.1.1.1'
p8098
(lp8099
S'P02916'
p8100
aS'Organic'
p8101
aS'Sugars'
p8102
aS'Maltose'
p8103
aS'17306'
p8104
aS'Known\n'
p8105
asS'3.A.1.1.7'
p8106
(lp8107
S'O51925'
p8108
aS'Organic'
p8109
aS'Sugars'
p8110
aS'"Maltose, trehalose"'
p8111
aS'"17306, 27082"'
p8112
aS'Predicted\n'
p8113
asS'3.A.1.1.6'
p8114
(lp8115
S'Q48397'
p8116
aS'Organic'
p8117
aS'Sugars'
p8118
aS'Cyclodextrin'
p8119
aS'23456'
p8120
aS'Predicted\n'
p8121
asS'3.A.1.1.5'
p8122
(lp8123
S'P54933'
p8124
aS'Organic'
p8125
aS'Sugars'
p8126
aS'Hexitols'
p8127
aS'24583'
p8128
aS'Predicted\n'
p8129
asS'3.A.1.1.4'
p8130
(lp8131
S'Q01937'
p8132
aS'Organic'
p8133
aS'Sugars'
p8134
aS'Lactose'
p8135
aS'17716'
p8136
aS'Known\n'
p8137
asS'1.A.1.10.8'
p8138
(lp8139
S'Q9UQD0'
p8140
aS'Inorganic'
p8141
aS'Cations'
p8142
aS'Na+'
p8143
aS'29101'
p8144
aS'Known\n'
p8145
asS'3.A.1.1.9'
p8146
(lp8147
S'Q09LY6'
p8148
aS'Organic'
p8149
aS'Sugars'
p8150
aS'Oligosaccharides'
p8151
aS'50699'
p8152
aS'Predicted\n'
p8153
asS'2.A.40.4.4'
p8154
(lp8155
S'P48777'
p8156
aS'Organic'
p8157
aS'Nucleobases'
p8158
aS'"Urate, xanthine"'
p8159
aS'"27216, 18107"'
p8160
aS'Known'
p8161
aS'Y\n'
p8162
asS'2.A.40.4.3'
p8163
(lp8164
S'P67444'
p8165
aS'Organic'
p8166
aS'Nucleobases'
p8167
aS'Xanthine'
p8168
aS'18107'
p8169
aS'Known'
p8170
aS'Y\n'
p8171
asS'1.A.4.7.3'
p8172
(lp8173
S'Q9GRV5'
p8174
aS'Inorganic'
p8175
aS'Cations'
p8176
aS'Ca2+'
p8177
aS'29108'
p8178
aS'Predicted\n'
p8179
asS'2.A.40.4.1'
p8180
(lp8181
S'Q07307'
p8182
aS'Organic'
p8183
aS'Nucleobases'
p8184
aS'"Urate, xanthine"'
p8185
aS'"27216, 18107"'
p8186
aS'Known'
p8187
aS'Y\n'
p8188
asS'3.A.1.3.1'
p8189
(lp8190
S'P0A2I9'
p8191
aS'Organic'
p8192
aS'Amino acids and derivatives'
p8193
aS'"Histidine, lysine, arginine, ornithine"'
p8194
aS'"27570, 25094, 29016, 18257"'
p8195
aS'Known\n'
p8196
asS'2.A.1.1.87'
p8197
(lp8198
S'Q8TD20'
p8199
aS'Organic'
p8200
aS'Sugars'
p8201
aS'Glucose'
p8202
aS'17234'
p8203
aS'Known\n'
p8204
asS'3.A.1.3.3'
p8205
(lp8206
S'P0AE30'
p8207
aS'Organic'
p8208
aS'Amino acids and derivatives'
p8209
aS'Arginine'
p8210
aS'29016'
p8211
aS'Known\n'
p8212
asS'3.A.1.3.2'
p8213
(lp8214
S'P0AEQ6'
p8215
aS'Organic'
p8216
aS'Amino acids and derivatives'
p8217
aS'Glutamine'
p8218
aS'28300'
p8219
aS'Known\n'
p8220
asS'3.A.1.3.5'
p8221
(lp8222
S'P35114'
p8223
aS'Organic'
p8224
aS'Amino acids and derivatives'
p8225
aS'Octopine'
p8226
aS'15805'
p8227
aS'Predicted\n'
p8228
asS'3.A.1.3.4'
p8229
(lp8230
S'P0AER5'
p8231
aS'Organic'
p8232
aS'Amino acids and derivatives'
p8233
aS'Glutamate'
p8234
aS'29987'
p8235
aS'Known\n'
p8236
asS'3.A.1.3.7'
p8237
(lp8238
S'Q52666'
p8239
aS'Organic'
p8240
aS'Amino acids and derivatives'
p8241
aS'"Glutamate, glutamine, aspartate, asparagine"'
p8242
aS'"29987, 28300, 29995, 22653"'
p8243
aS'Predicted\n'
p8244
asS'3.A.1.3.6'
p8245
(lp8246
S'P35120'
p8247
aS'Organic'
p8248
aS'Amino acids and derivatives'
p8249
aS'Nopaline'
p8250
aS'17249'
p8251
aS'Predicted\n'
p8252
asS'3.A.1.3.9'
p8253
(lp8254
S'P48245'
p8255
aS'Organic'
p8256
aS'Amino acids and derivatives'
p8257
aS'Glutamate'
p8258
aS'29987'
p8259
aS'Predicted\n'
p8260
asS'3.A.1.3.8'
p8261
(lp8262
S'Q52815'
p8263
aS'Organic'
p8264
aS'Amino acids and derivatives'
p8265
aS'Amino acids'
p8266
aS'33709'
p8267
aS'Predicted\n'
p8268
asS'9.B.30.1.1'
p8269
(lp8270
S'P54176'
p8271
aS'Macromolecules'
p8272
aS'Polysaccharides'
p8273
aS'Xanthan gum'
p8274
ag578
aS'Known\n'
p8275
asS'3.A.1.1.8'
p8276
(lp8277
S'Q9Z3R9'
p8278
aS'Organic'
p8279
aS'Sugars'
p8280
aS'"Sucrose, maltose, trehalose"'
p8281
aS'"17992, 17306, 27082"'
p8282
aS'Predicted\n'
p8283
asS'1.A.1.2.2'
p8284
(lp8285
S'P17972'
p8286
aS'Inorganic'
p8287
aS'Cations'
p8288
aS'K+'
p8289
aS'29103'
p8290
aS'Known\n'
p8291
asS'1.A.4.5.7'
p8292
(lp8293
S'Q7Z2W7'
p8294
aS'Inorganic'
p8295
aS'Cations'
p8296
aS'Ca2+'
p8297
aS'29108'
p8298
aS'Known\n'
p8299
asS'5.A.2.1.2'
p8300
(lp8301
S'Q8FDI3'
p8302
aS'Inorganic'
p8303
aS'Electrons'
p8304
aS'Electrons'
p8305
aS'10545'
p8306
aS'Known\n'
p8307
asS'2.A.40.4.2'
p8308
(lp8309
S'P0AGM9'
p8310
aS'Organic'
p8311
aS'Nucleobases'
p8312
aS'Xanthine'
p8313
aS'18107'
p8314
aS'Predicted'
p8315
aS'Y\n'
p8316
asS'3.A.2.1.1'
p8317
(lp8318
S'P0ABA4'
p8319
aS'Inorganic'
p8320
aS'Cations'
p8321
aS'H+'
p8322
aS'24636'
p8323
aS'Known\n'
p8324
asS'3.A.1.34.1'
p8325
(lp8326
S'Q99ZY6'
p8327
aS'Organic'
p8328
aS'Amino acids and derivatives'
p8329
aS'Tryptophan'
p8330
aS'27897'
p8331
aS'Predicted\n'
p8332
asS'1.A.2.2.5'
p8333
(lp8334
S'Q146M9'
p8335
aS'Inorganic'
p8336
aS'Cations'
p8337
aS'K+'
p8338
aS'29103'
p8339
aS'Predicted'
p8340
ag578
ag578
ag578
ag578
ag578
ag578
ag578
ag578
ag578
ag578
ag578
ag578
ag578
ag578
ag578
ag578
ag578
asS'1.A.2.2.4'
p8341
(lp8342
S'Q6ZEQ2'
p8343
aS'Inorganic'
p8344
aS'Cations'
p8345
aS'K+'
p8346
aS'29103'
p8347
aS'Predicted\n'
p8348
asS'1.A.2.2.1'
p8349
(lp8350
S'P83698'
p8351
aS'Inorganic'
p8352
aS'Cations'
p8353
aS'K+'
p8354
aS'29103'
p8355
aS'Predicted\n'
p8356
asS'1.A.1.10.12'
p8357
(lp8358
S'Q99250'
p8359
aS'Inorganic'
p8360
aS'Cations'
p8361
aS'Na+'
p8362
aS'29101'
p8363
aS'Known\n'
p8364
asS'1.A.2.2.2'
p8365
(lp8366
S'D9N164'
p8367
aS'Inorganic'
p8368
aS'Cations'
p8369
aS'K+'
p8370
aS'29103'
p8371
aS'Known\n'
p8372
asS'2.A.3.3.23'
p8373
(lp8374
S'S6EX81'
p8375
aS'Organic'
p8376
aS'Amino acids and derivatives'
p8377
aS'"Leucine, isoleucine, valine"'
p8378
aS'"25017, 24898, 27266"'
p8379
aS'Predicted\n'
p8380
asS'1.A.30.1.1'
p8381
(lp8382
S'P09348'
p8383
aS'Inorganic'
p8384
aS'Cation'
p8385
aS'H+'
p8386
aS'24636'
p8387
aS'Known\n'
p8388
asS'2.A.26.1.2'
p8389
(lp8390
S'P25185'
p8391
aS'Organic'
p8392
aS'Amino acids and derivatives'
p8393
aS'"Isoleucine, valine"'
p8394
aS'"24898, 27266"'
p8395
aS'Known'
p8396
aS'Y\n'
p8397
asS'3.A.1.26.11'
p8398
(lp8399
S'D6TJQ1'
p8400
aS'Organic'
p8401
aS'Vitamins'
p8402
aS'Pantothenate'
p8403
aS'16454'
p8404
aS'Predicted\n'
p8405
asS'2.A.53.1.7'
p8406
(lp8407
S'Q9SAY1'
p8408
aS'Inorganic'
p8409
aS'Anions'
p8410
aS'Sulfate'
p8411
aS'16189'
p8412
aS'Known'
p8413
aS'Y\n'
p8414
asS'3.A.1.6.2'
p8415
(lp8416
S'Q93KD6'
p8417
aS'Inorganic'
p8418
aS'Anions'
p8419
aS'Tungstate'
p8420
aS'46502'
p8421
aS'Predicted\n'
p8422
asS'2.A.7.10.2'
p8423
(lp8424
S'Q969S0'
p8425
aS'Organic'
p8426
aS'Sugar derviatives'
p8427
aS'"UDP-xylose, UDP-N-acetylglucosamine"'
p8428
aS'"16082, 16264"'
p8429
aS'Known'
p8430
aS'Y\n'
p8431
asS'1.A.45.1.1'
p8432
(lp8433
S'Q01074'
p8434
aS'Macromolecules'
p8435
aS'"Nucleic acids, proteins"'
p8436
aS'"DNA, proteins"'
p8437
aS'4705'
p8438
aS'Known\n'
p8439
asS'1.B.14.9.4'
p8440
(lp8441
S'H8BDK1'
p8442
aS'Organic'
p8443
aS'Siderophores'
p8444
aS'Heme'
p8445
aS'30413'
p8446
aS'Known'
p8447
aS'Y\n'
p8448
asS'3.A.1.5.44'
p8449
(lp8450
S'O86188'
p8451
aS'Organic'
p8452
aS'Peptides'
p8453
aS'Peptides'
p8454
aS'16670'
p8455
aS'Predicted\n'
p8456
asS'2.A.1.6.7'
p8457
(lp8458
S'P0A2G3'
p8459
aS'Organic'
p8460
aS'Carboxylates'
p8461
aS'"Citrate, tricarballylate"'
p8462
aS'"35808, 62517"'
p8463
aS'Known\n'
p8464
asS'3.A.1.5.40'
p8465
(lp8466
S'Q7VJ33'
p8467
aS'Inorganic'
p8468
aS'Cations'
p8469
aS'Ni2+'
p8470
aS'49786'
p8471
aS'Predicted\n'
p8472
asS'3.A.1.5.41'
p8473
(lp8474
S'Q46863'
p8475
aS'Organic'
p8476
aS'Peptides'
p8477
aS'Oligopeptides'
p8478
aS'25676'
p8479
aS'Known\n'
p8480
asS'3.A.1.5.42'
p8481
(lp8482
S'P0AAH8'
p8483
aS'Organic'
p8484
aS'Peptides'
p8485
aS'Peptides'
p8486
aS'16670'
p8487
aS'Known\n'
p8488
asS'2.A.3.2.2'
p8489
(lp8490
S'P0AAE8'
p8491
aS'Organic'
p8492
aS'Amines'
p8493
aS'Cadaverine'
p8494
aS'18127'
p8495
aS'Predicted\n'
p8496
asS'2.A.121.1.1'
p8497
(lp8498
S'P0A6J3'
p8499
aS'Inorganic'
p8500
aS'Anions'
p8501
aS'Sulfate'
p8502
aS'16189'
p8503
aS'Known'
p8504
aS'Y\n'
p8505
asS'1.A.1.11.13'
p8506
(lp8507
S'Q5QM84'
p8508
aS'Inorganic'
p8509
aS'Cations'
p8510
aS'Ca2+'
p8511
aS'29108'
p8512
aS'Known'
p8513
aS'Y\n'
p8514
asS'1.A.1.11.12'
p8515
(lp8516
S'Q9WUT2'
p8517
aS'Inorganic'
p8518
aS'Cations'
p8519
aS'Ca2+'
p8520
aS'29108'
p8521
aS'Known\n'
p8522
asS'1.A.1.11.11'
p8523
(lp8524
S'O60840'
p8525
aS'Inorganic'
p8526
aS'Cations'
p8527
aS'Ca2+'
p8528
aS'29108'
p8529
aS'Known\n'
p8530
asS'1.A.1.11.10'
p8531
(lp8532
S'P50077'
p8533
aS'Inorganic'
p8534
aS'Cations'
p8535
aS'Ca2+'
p8536
aS'29108'
p8537
aS'Known\n'
p8538
asS'1.A.4.10.1'
p8539
(lp8540
S'A8J563'
p8541
aS'Inorganic'
p8542
aS'Ions'
p8543
aS'Ions'
p8544
aS'24870'
p8545
aS'Predicted\n'
p8546
asS'3.A.1.15.10'
p8547
(lp8548
S'Q5FA63'
p8549
aS'Inorganic'
p8550
aS'Cations'
p8551
aS'"Mn2+, Zn2+"'
p8552
aS'"29035, 29105"'
p8553
aS'Predicted\n'
p8554
asS'2.A.7.25.9'
p8555
(lp8556
S'Q8BMW7'
p8557
aS'Inorganic'
p8558
aS'Cations'
p8559
aS'Mg2+'
p8560
aS'18420'
p8561
aS'Known'
p8562
aS'Y\n'
p8563
asS'2.A.122.2.1'
p8564
(lp8565
S'Q9FVQ4'
p8566
aS'Organic'
p8567
aS'Carboxylates'
p8568
aS'"Glycolate, glycerate"'
p8569
aS'"29805, 33871"'
p8570
aS'Known'
p8571
aS'Y\n'
p8572
asS'2.A.1.7.9'
p8573
(lp8574
S'A1S4V0'
p8575
aS'Organic'
p8576
aS'Sugar derivatives'
p8577
aS'N-acetylgalactosamine'
p8578
aS'28800'
p8579
aS'Predicted\n'
p8580
asS'3.A.1.13.1'
p8581
(lp8582
S'P06611'
p8583
aS'Organic'
p8584
aS'Vitamins'
p8585
aS'Vitamin B12'
p8586
aS'30411'
p8587
aS'Known'
p8588
aS'Y\n'
p8589
asS'1.A.1.8.2'
p8590
(lp8591
S'O95279'
p8592
aS'Inorganic'
p8593
aS'Cations'
p8594
aS'"K+, Rb+, Cs+, NH4+, Na+, Li+"'
p8595
aS'"29103, 49847, 49547, 28938, 29101, 49713"'
p8596
aS'Known\n'
p8597
asS'1.A.1.8.3'
p8598
(lp8599
S'Q9Y257'
p8600
aS'Inorganic'
p8601
aS'Cations'
p8602
aS'K+'
p8603
aS'29103'
p8604
aS'Known\n'
p8605
asS'1.A.1.10.11'
p8606
(lp8607
S'Q86D77'
p8608
aS'Inorganic'
p8609
aS'Cations'
p8610
aS'Na+'
p8611
aS'29101'
p8612
aS'Predicted\n'
p8613
asS'1.A.1.15.6'
p8614
(lp8615
S'P51787'
p8616
aS'Inorganic'
p8617
aS'Cations'
p8618
aS'K+'
p8619
aS'29103'
p8620
aS'Known\n'
p8621
asS'1.A.1.15.5'
p8622
(lp8623
S'Q9JK45'
p8624
aS'Inorganic'
p8625
aS'Cations'
p8626
aS'K+'
p8627
aS'29103'
p8628
aS'Known\n'
p8629
asS'1.A.1.15.4'
p8630
(lp8631
S'P56696'
p8632
aS'Inorganic'
p8633
aS'Cations'
p8634
aS'K+'
p8635
aS'29103'
p8636
aS'Known\n'
p8637
asS'1.A.1.15.3'
p8638
(lp8639
S'O43525'
p8640
aS'Inorganic'
p8641
aS'Cations'
p8642
aS'K+'
p8643
aS'29103'
p8644
aS'Known\n'
p8645
asS'1.A.1.15.2'
p8646
(lp8647
S'O43526'
p8648
aS'Inorganic'
p8649
aS'Cations'
p8650
aS'K+'
p8651
aS'29103'
p8652
aS'Known\n'
p8653
asS'1.A.1.15.1'
p8654
(lp8655
S'P97414'
p8656
aS'Inorganic'
p8657
aS'Cations'
p8658
aS'K+'
p8659
aS'29103'
p8660
aS'Known\n'
p8661
asS'1.A.1.14.3'
p8662
(lp8663
S'Q6U8D0'
p8664
aS'Inorganic'
p8665
aS'Cations'
p8666
aS'Na+'
p8667
aS'29101'
p8668
aS'Predicted\n'
p8669
asS'2.A.7.15.4'
p8670
(lp8671
S'Q9NTN3'
p8672
aS'Organic'
p8673
aS'Sugar derviatives'
p8674
aS'"UDP-glucuronate, UDP-N-acetylgalactosamine"'
p8675
aS'"17200, 16264"'
p8676
aS'Known'
p8677
aS'Y\n'
p8678
asS'9.B.14.2.3'
p8679
(lp8680
S'P0ABM1'
p8681
aS'Organic'
p8682
aS'Siderophores'
p8683
aS'Heme'
p8684
aS'30413'
p8685
aS'Predicted\n'
p8686
asS'2.A.72.3.1'
p8687
(lp8688
S'O22397'
p8689
aS'Inorganic'
p8690
aS'Cations'
p8691
aS'K+'
p8692
aS'29103'
p8693
aS'Known'
p8694
aS'Y\n'
p8695
asS'3.A.1.129.1'
p8696
(lp8697
S'P29018'
p8698
aS'Organic'
p8699
aS'Amino acids and derivatives'
p8700
aS'"Cysteine, glutathione"'
p8701
aS'"15356, 16856"'
p8702
aS'Known\n'
p8703
asS'2.A.7.15.2'
p8704
(lp8705
S'Q18779'
p8706
aS'Organic'
p8707
aS'Sugar derviatives'
p8708
aS'"UDP-glucuronic acid, UDP-N-acetylgalactosamine, UDP-galactose"'
p8709
aS'"17200, 16264,18307"'
p8710
aS'Known'
p8711
aS'Y\n'
p8712
asS'2.A.7.15.3'
p8713
(lp8714
S'Q95YI5'
p8715
aS'Organic'
p8716
aS'Sugar derviatives'
p8717
aS'"UDP-glucuronic acid, UDP-N-acetylgalactosamine, UDP-xylose"'
p8718
aS'"17200, 16264, 16082"'
p8719
aS'Known'
p8720
aS'Y\n'
p8721
asS'1.A.1.13.1'
p8722
(lp8723
S'P31069'
p8724
aS'Inorganic'
p8725
aS'Cations'
p8726
aS'K+'
p8727
aS'29103'
p8728
aS'Known\n'
p8729
asS'1.A.1.13.3'
p8730
(lp8731
S'Q979Z2'
p8732
aS'Inorganic'
p8733
aS'Cations'
p8734
aS'"Ca2+, Mg2+, Mn2+, Ni2+"'
p8735
aS'"18420, 29105, 49713"'
p8736
aS'Predicted\n'
p8737
asS'1.A.1.13.2'
p8738
(lp8739
S'O27564'
p8740
aS'Inorganic'
p8741
aS'Cations'
p8742
aS'K+'
p8743
aS'29103'
p8744
aS'Known\n'
p8745
asS'2.A.1.14.22'
p8746
(lp8747
S'O82390'
p8748
aS'Inorganic'
p8749
aS'"Cations, anions"'
p8750
aS'"Phosphate, Na+"'
p8751
aS'"24838, 29101"'
p8752
aS'Known'
p8753
aS'Y\n'
p8754
asS'1.A.1.13.4'
p8755
(lp8756
S'Q795M8'
p8757
aS'Inorganic'
p8758
aS'Cations'
p8759
aS'K+'
p8760
aS'29103'
p8761
aS'Predicted\n'
p8762
asS'1.A.1.13.7'
p8763
(lp8764
S'P73132'
p8765
aS'Inorganic'
p8766
aS'Cations'
p8767
aS'K+'
p8768
aS'29103'
p8769
aS'Predicted\n'
p8770
asS'1.A.1.13.6'
p8771
(lp8772
S'P74405'
p8773
aS'Inorganic'
p8774
aS'Cations'
p8775
aS'K+'
p8776
aS'29103'
p8777
aS'Predicted\n'
p8778
asS'2.A.56.1.8'
p8779
(lp8780
S'Q8FA79'
p8781
aS'Organic'
p8782
aS'Sugar derivatives'
p8783
aS'Sialic acid'
p8784
aS'26667'
p8785
aS'Known'
p8786
aS'Y\n'
p8787
asS'2.A.1.1.120'
p8788
(lp8789
S'E1WAV3'
p8790
aS'Organic'
p8791
aS'Sugar alcohols'
p8792
aS'Myo-inositol'
p8793
aS'17268'
p8794
aS'Known\n'
p8795
asS'2.A.7.17.2'
p8796
(lp8797
S'P46136'
p8798
aS'Organic'
p8799
aS'Amino acids and derivatives'
p8800
aS'"Phenylalanine, tyrosine, tryptophan, histidine"'
p8801
aS'"28044, 18186, 27897, 27570"'
p8802
aS'Known\n'
p8803
asS'5.A.1.2.4'
p8804
(lp8805
S'Q8S3X4'
p8806
aS'Inorganic'
p8807
aS'Electrons'
p8808
aS'Electrons'
p8809
aS'10545'
p8810
aS'Known\n'
p8811
asS'2.A.7.17.1'
p8812
(lp8813
S'V2FAS1'
p8814
aS'Organic'
p8815
aS'Amino acids and derivatives'
p8816
aS'"Phenylalanine, tryptophan, tyrosine"'
p8817
aS'"28044, 27897, 18186"'
p8818
aS'Known\n'
p8819
asS'2.A.29.8.4'
p8820
(lp8821
S'Q12289'
p8822
aS'Organic'
p8823
aS'Amines'
p8824
aS'Carnitine'
p8825
aS'17126'
p8826
aS'Known'
p8827
aS'Y\n'
p8828
asS'2.A.29.8.5'
p8829
(lp8830
S'Q8BL03'
p8831
aS'Organic'
p8832
aS'Amines'
p8833
aS'"Carnitine, acylcarnitine"'
p8834
aS'"17126, 17387"'
p8835
aS'Known'
p8836
aS'Y\n'
p8837
asS'2.A.58.2.1'
p8838
(lp8839
S'P0AF43'
p8840
aS'Inorganic'
p8841
aS'Anions'
p8842
aS'Phosphate'
p8843
aS'18367'
p8844
aS'Known'
p8845
aS'Y\n'
p8846
asS'1.A.1.1.1'
p8847
(lp8848
S'P0A334'
p8849
aS'Inorganic'
p8850
aS'Cations'
p8851
aS'K+'
p8852
aS'29103'
p8853
aS'Known\n'
p8854
asS'2.A.1.1.84'
p8855
(lp8856
S'Q8LPQ8'
p8857
aS'Organic'
p8858
aS'Sugars'
p8859
aS'"Glucose, sucrose"'
p8860
aS'"17234, 17992"'
p8861
aS'Known\n'
p8862
asS'2.A.72.3.8'
p8863
(lp8864
S'O22881'
p8865
aS'Inorganic'
p8866
aS'Cations'
p8867
aS'K+'
p8868
aS'29103'
p8869
aS'Known'
p8870
aS'Y\n'
p8871
asS'1.A.4.1.14'
p8872
(lp8873
S'A8IAT9'
p8874
aS'Inorganic'
p8875
aS'Cations'
p8876
aS'Ca2+'
p8877
aS'29108'
p8878
aS'Predicted\n'
p8879
asS'1.A.4.1.12'
p8880
(lp8881
S'Q9UBN4'
p8882
aS'Inorganic'
p8883
aS'Cations'
p8884
aS'Ca2+'
p8885
aS'29108'
p8886
aS'Known\n'
p8887
asS'1.A.4.1.13'
p8888
(lp8889
S'A8JCM1'
p8890
aS'Inorganic'
p8891
aS'Cations'
p8892
aS'Ca2+'
p8893
aS'29108'
p8894
aS'Predicted\n'
p8895
asS'2.A.7.6.1'
p8896
(lp8897
S'P27125'
p8898
aS'Organic'
p8899
aS'Sugars'
p8900
aS'Rhamnose'
p8901
aS'26546'
p8902
aS'Known\n'
p8903
asS'1.A.4.1.11'
p8904
(lp8905
S'A8I051'
p8906
aS'Inorganic'
p8907
aS'Cations'
p8908
aS'Ca2+'
p8909
aS'29108'
p8910
aS'Predicted\n'
p8911
asS'2.A.1.1.44'
p8912
(lp8913
S'Q9BYW1'
p8914
aS'Organic'
p8915
aS'Sugars'
p8916
aS'Hexoses'
p8917
aS'18133'
p8918
aS'Known\n'
p8919
asS'3.A.11.3.1'
p8920
(lp8921
S'Q9ZKE4'
p8922
aS'Macromolecules'
p8923
aS'Nucleic acids'
p8924
aS'ssDNA'
p8925
aS'9160'
p8926
aS'Known\n'
p8927
asS'1.A.1.13.8'
p8928
(lp8929
S'Q57604'
p8930
aS'Inorganic'
p8931
aS'Cations'
p8932
aS'K+'
p8933
aS'29103'
p8934
aS'Known\n'
p8935
asS'2.A.42.2.1'
p8936
(lp8937
S'P0AAD6'
p8938
aS'Organic'
p8939
aS'Amino acids and derivatives'
p8940
aS'Serine'
p8941
aS'17822'
p8942
aS'Known'
p8943
aS'Y\n'
p8944
asS'1.A.1.6.1'
p8945
(lp8946
S'Q57603'
p8947
aS'Inorganic'
p8948
aS'Cations'
p8949
aS'K+'
p8950
aS'29103'
p8951
aS'Known\n'
p8952
asS'3.A.1.15.3'
p8953
(lp8954
S'Q8DQ09'
p8955
aS'Inorganic'
p8956
aS'Cations'
p8957
aS'Zn2+'
p8958
aS'29105'
p8959
aS'Predicted\n'
p8960
asS'9.B.43.1.1'
p8961
(lp8962
S'Q8XB73'
p8963
aS'Inorganic'
p8964
aS'Electrons'
p8965
aS'Electrons'
p8966
aS'10545'
p8967
aS'Known\n'
p8968
asS'2.A.66.2.7'
p8969
(lp8970
S'P77377'
p8971
aS'Macromolecules'
p8972
aS'Polysaccharides'
p8973
aS'LPS'
p8974
aS'16412'
p8975
aS'Known'
p8976
aS'Y\n'
p8977
asS'1.A.1.17.1'
p8978
(lp8979
S'Q9YDF8'
p8980
aS'Inorganic'
p8981
aS'Cations'
p8982
aS'K+'
p8983
aS'29103'
p8984
aS'Predicted\n'
p8985
asS'2.A.1.1.129'
p8986
(lp8987
S'A5LGM7'
p8988
aS'Organic'
p8989
aS'Sugars'
p8990
aS'Trehalose'
p8991
aS'27082'
p8992
aS'Known\n'
p8993
asS'2.A.1.1.128'
p8994
(lp8995
S'A5Y0C3'
p8996
aS'Organic'
p8997
aS'Sugars'
p8998
aS'Glucose'
p8999
aS'17234'
p9000
aS'Predicted\n'
p9001
asS'2.A.1.1.127'
p9002
(lp9003
S'G4TIR7'
p9004
aS'Organic'
p9005
aS'Sugars'
p9006
aS'Hexoses'
p9007
aS'18133'
p9008
aS'Predicted\n'
p9009
asS'2.A.1.1.126'
p9010
(lp9011
S'A8DCT2'
p9012
aS'Organic'
p9013
aS'Sugar alcohols'
p9014
aS'Myo-inositol'
p9015
aS'17268'
p9016
aS'Predicted\n'
p9017
asS'9.B.37.1.2'
p9018
(lp9019
S'Q9VUW9'
p9020
aS'Inorganic'
p9021
aS'Cations'
p9022
aS'Divalent cations'
p9023
aS'64641'
p9024
aS'Known\n'
p9025
asS'2.A.1.1.124'
p9026
(lp9027
S'Q9LT15'
p9028
aS'Organic'
p9029
aS'Sugars'
p9030
aS'"Glucose, galactose, mannose, hexoses"'
p9031
aS'"17234, 28260, 37684, 18133"'
p9032
aS'Known\n'
p9033
asS'1.B.14.2.14'
p9034
(lp9035
S'P72412'
p9036
aS'Organic'
p9037
aS'Siderophores'
p9038
aS'Heme'
p9039
aS'30413'
p9040
aS'Known'
p9041
aS'Y\n'
p9042
asS'1.A.4.5.10'
p9043
(lp9044
S'Q93971'
p9045
aS'Inorganic'
p9046
aS'Cations'
p9047
aS'Cations'
p9048
aS'36916'
p9049
aS'Known\n'
p9050
asS'2.A.1.1.121'
p9051
(lp9052
S'E1WAV4'
p9053
aS'Organic'
p9054
aS'Sugar alcohols'
p9055
aS'Myo-inositol'
p9056
aS'17268'
p9057
aS'Known\n'
p9058
asS'2.A.1.9.11'
p9059
(lp9060
S'K4HTY2'
p9061
aS'Inorganic'
p9062
aS'Anions'
p9063
aS'Phosphate'
p9064
aS'24838'
p9065
aS'Predicted\n'
p9066
asS'1.A.54.1.1'
p9067
(lp9068
S'P49768'
p9069
aS'Inorganic'
p9070
aS'Cations'
p9071
aS'Ca2+'
p9072
aS'29108'
p9073
aS'Known'
p9074
aS'Y\n'
p9075
asS'1.A.54.1.2'
p9076
(lp9077
S'P49810'
p9078
aS'Inorganic'
p9079
aS'Cations'
p9080
aS'Ca2+'
p9081
aS'29108'
p9082
aS'Known'
p9083
aS'Y\n'
p9084
asS'1.A.23.3.2'
p9085
(lp9086
S'P75783'
p9087
aS'Organic'
p9088
aS'Ions'
p9089
aS'"Na+, Cl-"'
p9090
aS'"29101, 17996"'
p9091
aS'Known\n'
p9092
asS'1.A.1.9.8'
p9093
(lp9094
S'Q23435'
p9095
aS'Inorganic'
p9096
aS'Cations'
p9097
aS'K+'
p9098
aS'29103'
p9099
aS'Known\n'
p9100
asS'1.A.1.10.3'
p9101
(lp9102
S'Q14524'
p9103
aS'Inorganic'
p9104
aS'Cations'
p9105
aS'Na+'
p9106
aS'29101'
p9107
aS'Known\n'
p9108
asS'5.B.4.1.1'
p9109
(lp9110
S'Q9SYK8'
p9111
aS'Inorganic'
p9112
aS'Electrons'
p9113
aS'Electrons'
p9114
aS'10545'
p9115
aS'Known\n'
p9116
asS'3.A.1.1.12'
p9117
(lp9118
S'Q9AI68'
p9119
aS'Organic'
p9120
aS'Sugars'
p9121
aS'Palatinose'
p9122
aS'18394'
p9123
aS'Predicted\n'
p9124
asS'1.A.1.4.8'
p9125
(lp9126
S'Q8GXE6'
p9127
aS'Inorganic'
p9128
aS'Cations'
p9129
aS'K+'
p9130
aS'29103'
p9131
aS'Known\n'
p9132
asS'3.A.1.1.30'
p9133
(lp9134
S'Q88P35'
p9135
aS'Organic'
p9136
aS'Sugars'
p9137
aS'Glucose'
p9138
aS'17234'
p9139
aS'Predicted\n'
p9140
asS'3.A.1.1.32'
p9141
(lp9142
S'Q55473'
p9143
aS'Organic'
p9144
aS'Sugars'
p9145
aS'Glucosylglycerol'
p9146
aS'63426'
p9147
aS'Predicted\n'
p9148
asS'3.A.1.1.35'
p9149
(lp9150
S'G3LHZ3'
p9151
aS'Organic'
p9152
aS'Sugar alcohols'
p9153
aS'Glycerol'
p9154
aS'17754'
p9155
aS'Predicted\n'
p9156
asS'3.A.1.1.34'
p9157
(lp9158
S'P94360'
p9159
aS'Organic'
p9160
aS'Sugars'
p9161
aS'Arabinosides'
p9162
aS'22601'
p9163
aS'Predicted\n'
p9164
asS'3.A.1.1.37'
p9165
(lp9166
S'Q9WYB4'
p9167
aS'Organic'
p9168
aS'Sugars'
p9169
aS'Arabinosides'
p9170
aS'22601'
p9171
aS'Predicted\n'
p9172
asS'3.A.1.12.5'
p9173
(lp9174
S'Q9RQ06'
p9175
aS'Organic'
p9176
aS'Amino acids and derivatives'
p9177
aS'"Glycine betaine, proline"'
p9178
aS'"17750, 26271"'
p9179
aS'Predicted\n'
p9180
asS'3.A.1.1.39'
p9181
(lp9182
S'Q9WYR1'
p9183
aS'Organic'
p9184
aS'Sugars'
p9185
aS'"_-1,4-digalacturonate"'
p9186
aS'39473'
p9187
aS'Predicted\n'
p9188
asS'3.A.1.1.38'
p9189
(lp9190
S'Q9WYQ2'
p9191
aS'Organic'
p9192
aS'Sugar alcohols'
p9193
aS'Inositol phosphate'
p9194
aS'84139'
p9195
aS'Predicted\n'
p9196
asS'3.A.11.1.1'
p9197
(lp9198
S'P39695'
p9199
aS'Macromolecules'
p9200
aS'Nucleic acids'
p9201
aS'ssDNA'
p9202
aS'9160'
p9203
aS'Known\n'
p9204
asS'1.A.1.4.3'
p9205
(lp9206
S'Q8VX27'
p9207
aS'Inorganic'
p9208
aS'Cations'
p9209
aS'K+'
p9210
aS'29103'
p9211
aS'Known\n'
p9212
asS'1.A.1.4.4'
p9213
(lp9214
S'Q94A76'
p9215
aS'Inorganic'
p9216
aS'Cations'
p9217
aS'K+'
p9218
aS'29103'
p9219
aS'Known\n'
p9220
asS'1.A.1.4.5'
p9221
(lp9222
S'Q9M8S6'
p9223
aS'Inorganic'
p9224
aS'Cations'
p9225
aS'K+'
p9226
aS'29103'
p9227
aS'Known\n'
p9228
asS'1.A.1.4.6'
p9229
(lp9230
S'Q38898'
p9231
aS'Inorganic'
p9232
aS'Cations'
p9233
aS'K+'
p9234
aS'29103'
p9235
aS'Known'
p9236
aS'Y\n'
p9237
asS'1.A.1.4.7'
p9238
(lp9239
S'Q39128'
p9240
aS'Inorganic'
p9241
aS'Cations'
p9242
aS'K+'
p9243
aS'29103'
p9244
aS'Known\n'
p9245
asS'1.A.3.2.4'
p9246
(lp9247
S'A0CX44'
p9248
aS'Inorganic'
p9249
aS'Cations'
p9250
aS'Ca2+'
p9251
aS'29108'
p9252
aS'Predicted\n'
p9253
asS'2.A.1.1.109'
p9254
(lp9255
S'P42833'
p9256
aS'Organic'
p9257
aS'Sugars'
p9258
aS'Hexoses'
p9259
aS'18133'
p9260
aS'Known\n'
p9261
asS'3.A.1.14.8'
p9262
(lp9263
S'Q8GRB3'
p9264
aS'Organic'
p9265
aS'Siderophores'
p9266
aS'Fe3+-vibrioferrin'
p9267
aS'61375'
p9268
aS'Known'
p9269
aS'Y\n'
p9270
asS'3.A.1.14.9'
p9271
(lp9272
S'Q9HQ20'
p9273
aS'Organic'
p9274
aS'Vitamins'
p9275
aS'Corrinoid'
p9276
aS'33913'
p9277
aS'Known\n'
p9278
asS'3.A.1.14.19'
p9279
(lp9280
S'Q93SS3'
p9281
aS'Organic'
p9282
aS'Siderophores'
p9283
aS'Heme'
p9284
aS'30413'
p9285
aS'Predicted\n'
p9286
asS'2.A.1.8.5'
p9287
(lp9288
S'P22152'
p9289
aS'Inorganic'
p9290
aS'Anions'
p9291
aS'"Nitrite, nitrate"'
p9292
aS'"16301, 17632"'
p9293
aS'Known\n'
p9294
asS'1.A.2.1.14'
p9295
(lp9296
S'A7UVQ1'
p9297
aS'Inorganic'
p9298
aS'Cations'
p9299
aS'K+'
p9300
aS'29103'
p9301
aS'Predicted\n'
p9302
asS'3.A.1.14.5'
p9303
(lp9304
S'Q56993'
p9305
aS'Organic'
p9306
aS'Siderophores'
p9307
aS'Heme'
p9308
aS'30413'
p9309
aS'Known\n'
p9310
asS'1.A.2.1.16'
p9311
(lp9312
S'P78508'
p9313
aS'Inorganic'
p9314
aS'Cations'
p9315
aS'K+'
p9316
aS'29103'
p9317
aS'Known\n'
p9318
asS'1.A.2.1.17'
p9319
(lp9320
S'Q14654'
p9321
aS'Inorganic'
p9322
aS'Cations'
p9323
aS'K+'
p9324
aS'29103'
p9325
aS'Known\n'
p9326
asS'1.A.2.1.10'
p9327
(lp9328
S'P48051'
p9329
aS'Inorganic'
p9330
aS'Cations'
p9331
aS'K+'
p9332
aS'29103'
p9333
aS'Known\n'
p9334
asS'1.A.2.1.11'
p9335
(lp9336
S'Q9NPI9'
p9337
aS'Inorganic'
p9338
aS'Cations'
p9339
aS'K+'
p9340
aS'29103'
p9341
aS'Known\n'
p9342
asS'1.A.2.1.12'
p9343
(lp9344
S'P48549'
p9345
aS'Inorganic'
p9346
aS'Cations'
p9347
aS'K+'
p9348
aS'29103'
p9349
aS'Known\n'
p9350
asS'3.A.1.14.3'
p9351
(lp9352
S'P07822'
p9353
aS'Organic'
p9354
aS'Siderophores'
p9355
aS'"Fe3+-hydroxamate, albomycin"'
p9356
aS'"28163, 83207"'
p9357
aS'Known\n'
p9358
asS'9.A.8.1.9'
p9359
(lp9360
S'Q57986'
p9361
aS'Inorganic'
p9362
aS'Cations'
p9363
aS'Fe2+'
p9364
aS'29033'
p9365
aS'Predicted\n'
p9366
asS'1.A.2.1.13'
p9367
(lp9368
S'Q15842'
p9369
aS'Inorganic'
p9370
aS'Cations'
p9371
aS'K+'
p9372
aS'29103'
p9373
aS'Known\n'
p9374
asS'2.A.3.3.11'
p9375
(lp9376
S'Q9SHH0'
p9377
aS'Organic'
p9378
aS'Amino acids and derivatives'
p9379
aS'Amino acids'
p9380
aS'33709'
p9381
aS'Known\n'
p9382
asS'2.A.7.11.1'
p9383
(lp9384
S'P78383'
p9385
aS'Organic'
p9386
aS'Sugar derviatives'
p9387
aS'UDP-galactose'
p9388
aS'18307'
p9389
aS'Known'
p9390
aS'Y\n'
p9391
asS'2.A.3.1.23'
p9392
(lp9393
S'P0AAE2'
p9394
aS'Organic'
p9395
aS'Amino acids and derivatives'
p9396
aS'Proline'
p9397
aS'26271'
p9398
aS'Known\n'
p9399
asS'9.A.8.1.1'
p9400
(lp9401
S'P33650'
p9402
aS'Inorganic'
p9403
aS'Cations'
p9404
aS'Fe2+'
p9405
aS'29033'
p9406
aS'Known\n'
p9407
asS'2.A.1.1.53'
p9408
(lp9409
S'Q8NTX0'
p9410
aS'Organic'
p9411
aS'"Sugar alcohols, sugars"'
p9412
aS'"Myo-inositol, glucose"'
p9413
aS'"17268, 17234"'
p9414
aS'Predicted\n'
p9415
asS'2.A.7.13.1'
p9416
(lp9417
S'P40107'
p9418
aS'Organic'
p9419
aS'Sugar derviatives'
p9420
aS'GDP-mannose'
p9421
aS'21168'
p9422
aS'Known'
p9423
aS'Y\n'
p9424
asS'2.A.1.15.13'
p9425
(lp9426
S'P76198'
p9427
aS'Organic'
p9428
aS'Carboxylates'
p9429
aS'"Quinate, shikimate"'
p9430
aS'"29751, 36208"'
p9431
aS'Predicted\n'
p9432
asS'3.A.7.11.1'
p9433
(lp9434
S'Q93NF2'
p9435
aS'Macromolecules'
p9436
aS'Nucleic acids'
p9437
aS'DNA'
p9438
aS'4705'
p9439
aS'Known\n'
p9440
asS'2.A.3.1.24'
p9441
(lp9442
S'P77610'
p9443
aS'Organic'
p9444
aS'Amino acids and derivatives'
p9445
aS'Asparagine'
p9446
aS'22653'
p9447
aS'Predicted\n'
p9448
asS'2.A.21.3.5'
p9449
(lp9450
S'P31637'
p9451
aS'Organic'
p9452
aS'Sugar alcohols'
p9453
aS'Inositol'
p9454
aS'17268'
p9455
aS'Known'
p9456
aS'Y\n'
p9457
asS'2.A.1.1.108'
p9458
(lp9459
S'P32465'
p9460
aS'Organic'
p9461
aS'Sugars'
p9462
aS'Glucose'
p9463
aS'17234'
p9464
aS'Known\n'
p9465
asS'2.A.3.3.13'
p9466
(lp9467
S'Q9ASS7'
p9468
aS'Organic'
p9469
aS'Amino acids and derivatives'
p9470
aS'Amino acids'
p9471
aS'33709'
p9472
aS'Known\n'
p9473
asS'1.B.14.1.1'
p9474
(lp9475
S'P16869'
p9476
aS'Organic'
p9477
aS'Siderophores'
p9478
aS'Fe3+-coprogen'
p9479
aS'83101'
p9480
aS'Known'
p9481
aS'Y\n'
p9482
asS'1.A.4.2.5'
p9483
(lp9484
S'Q9ERZ8'
p9485
aS'Inorganic'
p9486
aS'Cations'
p9487
aS'Ca2+'
p9488
aS'29108'
p9489
aS'Known\n'
p9490
asS'1.B.14.1.3'
p9491
(lp9492
S'O54507'
p9493
aS'Organic'
p9494
aS'Siderophores'
p9495
aS'Fe3+-enterobactin'
p9496
aS'28855'
p9497
aS'Known'
p9498
aS'Y\n'
p9499
asS'1.B.14.1.2'
p9500
(lp9501
S'P06971'
p9502
aS'Organic'
p9503
aS'Siderophores'
p9504
aS'Fe3+-ferrichrome'
p9505
aS'5019'
p9506
aS'Known'
p9507
aS'Y\n'
p9508
asS'1.A.1.2.6'
p9509
(lp9510
S'P08510'
p9511
aS'Inorganic'
p9512
aS'Cations'
p9513
aS'K+'
p9514
aS'29103'
p9515
aS'Known\n'
p9516
asS'1.A.1.2.7'
p9517
(lp9518
S'Q96KK3'
p9519
aS'Inorganic'
p9520
aS'Cations'
p9521
aS'K+'
p9522
aS'29103'
p9523
aS'Known\n'
p9524
asS'1.A.1.2.4'
p9525
(lp9526
S'P22460'
p9527
aS'Inorganic'
p9528
aS'Cations'
p9529
aS'K+'
p9530
aS'29103'
p9531
aS'Known\n'
p9532
asS'1.A.1.2.5'
p9533
(lp9534
S'Q9NZV8'
p9535
aS'Inorganic'
p9536
aS'Cations'
p9537
aS'K+'
p9538
aS'29103'
p9539
aS'Known\n'
p9540
asS'2.A.72.1.1'
p9541
(lp9542
S'P63183'
p9543
aS'Inorganic'
p9544
aS'Cations'
p9545
aS'K+'
p9546
aS'29103'
p9547
aS'Known'
p9548
aS'Y\n'
p9549
asS'1.A.1.2.3'
p9550
(lp9551
S'P17971'
p9552
aS'Inorganic'
p9553
aS'Cations'
p9554
aS'K+'
p9555
aS'29103'
p9556
aS'Known\n'
p9557
asS'1.A.1.17.2'
p9558
(lp9559
S'Q8Y5K1'
p9560
aS'Inorganic'
p9561
aS'Cations'
p9562
aS'K+'
p9563
aS'29103'
p9564
aS'Known\n'
p9565
asS'1.A.1.2.1'
p9566
(lp9567
S'P17970'
p9568
aS'Inorganic'
p9569
aS'Cations'
p9570
aS'K+'
p9571
aS'29103'
p9572
aS'Known\n'
p9573
asS'1.A.3.1.3'
p9574
(lp9575
S'Q7PMK5'
p9576
aS'Inorganic'
p9577
aS'Cations'
p9578
aS'Ca2+'
p9579
aS'29108'
p9580
aS'Predicted\n'
p9581
asS'1.A.3.1.2'
p9582
(lp9583
S'P21817'
p9584
aS'Inorganic'
p9585
aS'Cations'
p9586
aS'"Ca2+, K+"'
p9587
aS'"29108, 29103"'
p9588
aS'Known\n'
p9589
asS'1.A.3.1.1'
p9590
(lp9591
S'Q92736'
p9592
aS'Inorganic'
p9593
aS'Cations'
p9594
aS'Ca2+'
p9595
aS'29108'
p9596
aS'Known\n'
p9597
asS'1.A.3.1.7'
p9598
(lp9599
S'X1WXB1'
p9600
aS'Inorganic'
p9601
aS'Cations'
p9602
aS'Ca2+'
p9603
aS'29108'
p9604
aS'Predicted\n'
p9605
asS'1.A.3.1.6'
p9606
(lp9607
S'P91905'
p9608
aS'Inorganic'
p9609
aS'Cations'
p9610
aS'Ca2+'
p9611
aS'29108'
p9612
aS'Predicted\n'
p9613
asS'1.A.3.1.5'
p9614
(lp9615
S'Q24498'
p9616
aS'Inorganic'
p9617
aS'Cations'
p9618
aS'Ca2+'
p9619
aS'29108'
p9620
aS'Known\n'
p9621
asS'2.A.7.11.7'
p9622
(lp9623
S'Q6NM25'
p9624
aS'Organic'
p9625
aS'Sugar derviatives'
p9626
aS'"UDP-galactose, UDP-glucose"'
p9627
aS'"18307, 18066"'
p9628
aS'Known'
p9629
aS'Y\n'
p9630
asS'2.A.1.1.64'
p9631
(lp9632
S'B1PM37'
p9633
aS'Organic'
p9634
aS'Sugars'
p9635
aS'Hexoses'
p9636
aS'18133'
p9637
aS'Known\n'
p9638
asS'3.A.1.16.4'
p9639
(lp9640
S'Q8YZ25'
p9641
aS'Inorganic'
p9642
aS'Anions'
p9643
aS'NO3-'
p9644
aS'17632'
p9645
aS'Predicted\n'
p9646
asS'3.A.1.16.2'
p9647
(lp9648
S'Q7BW13'
p9649
aS'Inorganic'
p9650
aS'Anions'
p9651
aS'"CNO-, NO2-"'
p9652
aS'"29195, 16301"'
p9653
aS'Predicted\n'
p9654
asS'3.A.1.16.3'
p9655
(lp9656
S'P39660'
p9657
aS'Inorganic'
p9658
aS'Anions'
p9659
aS'HCO3-'
p9660
aS'17544'
p9661
aS'Known\n'
p9662
asS'1.B.14.1.22'
p9663
(lp9664
S'P05825'
p9665
aS'Organic'
p9666
aS'Siderophores'
p9667
aS'Fe3+-enterobactin'
p9668
aS'28855'
p9669
aS'Known'
p9670
aS'Y\n'
p9671
asS'3.A.1.16.1'
p9672
(lp9673
S'P38046'
p9674
aS'Inorganic'
p9675
aS'Anions'
p9676
aS'"NO3-, NO2-"'
p9677
aS'"17632, 16301"'
p9678
aS'Predicted\n'
p9679
asS'1.A.1.20.7'
p9680
(lp9681
S'A8IYM3'
p9682
aS'Inorganic'
p9683
aS'Cations'
p9684
aS'K+'
p9685
aS'29103'
p9686
aS'Predicted\n'
p9687
asS'2.A.2.4.7'
p9688
(lp9689
S'Q5BKX6'
p9690
aS'Organic'
p9691
aS'Sugars'
p9692
aS'Sucrose'
p9693
aS'17992'
p9694
aS'Known\n'
p9695
asS'2.A.1.8.3'
p9696
(lp9697
S'Q9R6U5'
p9698
aS'Inorganic'
p9699
aS'Anions'
p9700
aS'"Nitrite, nitrate"'
p9701
aS'"16301, 17632"'
p9702
aS'Predicted\n'
p9703
asS'3.A.1.7.2'
p9704
(lp9705
S'Q7WTY8'
p9706
aS'Inorganic'
p9707
aS'Anions'
p9708
aS'Phosphate'
p9709
aS'24838'
p9710
aS'Predicted\n'
p9711
asS'1.A.1.20.6'
p9712
(lp9713
S'Q02280'
p9714
aS'Inorganic'
p9715
aS'Cations'
p9716
aS'K+'
p9717
aS'29103'
p9718
aS'Known\n'
p9719
asS'2.A.47.3.3'
p9720
(lp9721
S'P39414'
p9722
aS'Organic'
p9723
aS'Carboxylates'
p9724
aS'L-tartrate'
p9725
aS'30924'
p9726
aS'Known'
p9727
aS'Y\n'
p9728
asS'2.A.47.3.2'
p9729
(lp9730
S'P0AE74'
p9731
aS'Organic'
p9732
aS'Carboxylates'
p9733
aS'"Citrate, succinate"'
p9734
aS'"35808, 26806"'
p9735
aS'Known\n'
p9736
asS'3.A.1.18.2'
p9737
(lp9738
S'Q7NIX8'
p9739
aS'Inorganic'
p9740
aS'Cations'
p9741
aS'Co2+'
p9742
aS'48828'
p9743
aS'Predicted\n'
p9744
asS'3.A.1.18.3'
p9745
(lp9746
S'F0SWZ6'
p9747
aS'Inorganic'
p9748
aS'Cations'
p9749
aS'Co2+'
p9750
aS'48828'
p9751
aS'Predicted\n'
p9752
asS'3.A.1.106.3'
p9753
(lp9754
S'Q8G7R7'
p9755
aS'Organic'
p9756
aS'Drugs'
p9757
aS'"Nisin, polymyxin"'
p9758
aS'"71629, 59062"'
p9759
aS'Predicted\n'
p9760
asS'1.A.1.20.5'
p9761
(lp9762
S'Q9ULD8'
p9763
aS'Inorganic'
p9764
aS'Cations'
p9765
aS'K+'
p9766
aS'29103'
p9767
aS'Known\n'
p9768
asS'3.A.1.106.1'
p9769
(lp9770
S'P60752'
p9771
aS'Organic'
p9772
aS'"Lipids, polysaccharides, drugs"'
p9773
aS'"Phosphoplipids, LPS, lipid A, drugs"'
p9774
aS'"16247, 16412, 25051, 23888"'
p9775
aS'Known\n'
p9776
asS'2.A.47.3.4'
p9777
(lp9778
S'Q6D017'
p9779
aS'Organic'
p9780
aS'Carboxylates'
p9781
aS'Citrate'
p9782
aS'35808'
p9783
aS'Known\n'
p9784
asS'1.A.1.20.4'
p9785
(lp9786
S'Q63472'
p9787
aS'Inorganic'
p9788
aS'Cations'
p9789
aS'K+'
p9790
aS'29103'
p9791
aS'Known\n'
p9792
asS'2.A.1.8.10'
p9793
(lp9794
S'P37758'
p9795
aS'Inorganic'
p9796
aS'Anions'
p9797
aS'"Nitrate, nitrite"'
p9798
aS'"17632, 16301"'
p9799
aS'Known\n'
p9800
asS'1.B.14.3.1'
p9801
(lp9802
S'P06129'
p9803
aS'Organic'
p9804
aS'Vitamins'
p9805
aS'Vitamin B12'
p9806
aS'30411'
p9807
aS'Known'
p9808
aS'Y\n'
p9809
asS'3.A.1.6.9'
p9810
(lp9811
S'Q58586'
p9812
aS'Inorganic'
p9813
aS'Anions'
p9814
aS'"Tungstate, molybdate"'
p9815
aS'"46502, 36264, 18212"'
p9816
aS'Predicted\n'
p9817
asS'1.A.1.20.3'
p9818
(lp9819
S'O54852'
p9820
aS'Inorganic'
p9821
aS'Cations'
p9822
aS'K+'
p9823
aS'29103'
p9824
aS'Known\n'
p9825
asS'3.A.2.1.2'
p9826
(lp9827
S'P21910'
p9828
aS'Inorganic'
p9829
aS'Cations'
p9830
aS'Na+'
p9831
aS'29101'
p9832
aS'Known\n'
p9833
asS'1.A.4.6.3'
p9834
(lp9835
S'O75762'
p9836
aS'Inorganic'
p9837
aS'Cations'
p9838
aS'Cations'
p9839
aS'36916'
p9840
aS'Known\n'
p9841
asS'2.A.24.1.1'
p9842
(lp9843
S'P31602'
p9844
aS'Organic'
p9845
aS'Carboxylates'
p9846
aS'Citrate'
p9847
aS'35808'
p9848
aS'Known\n'
p9849
asS'3.A.2.1.6'
p9850
(lp9851
S'F8L1Z7'
p9852
aS'Inorganic'
p9853
aS'Cations'
p9854
aS'"H+, Na+"'
p9855
aS'"24636, 29101"'
p9856
aS'Known\n'
p9857
asS'1.A.1.20.2'
p9858
(lp9859
S'O54853'
p9860
aS'Inorganic'
p9861
aS'Cations'
p9862
aS'K+'
p9863
aS'29103'
p9864
aS'Known\n'
p9865
asS'2.A.49.5.5'
p9866
(lp9867
S'A8ALD3'
p9868
aS'Inorganic'
p9869
aS'"Cations, anions"'
p9870
aS'"H+, Cl-"'
p9871
aS'"24636, 17996"'
p9872
aS'Known\n'
p9873
asS'3.A.1.10.1'
p9874
(lp9875
S'P21410'
p9876
aS'Inorganic'
p9877
aS'Cations'
p9878
aS'Fe3+'
p9879
aS'29034'
p9880
aS'Known\n'
p9881
asS'3.A.1.10.2'
p9882
(lp9883
S'Q55835'
p9884
aS'Inorganic'
p9885
aS'Cations'
p9886
aS'Fe3+'
p9887
aS'29034'
p9888
aS'Known\n'
p9889
asS'2.A.1.1.125'
p9890
(lp9891
S'C4QVV9'
p9892
aS'Organic'
p9893
aS'Sugar alcohols'
p9894
aS'Glycerol'
p9895
aS'17754'
p9896
aS'Predicted\n'
p9897
asS'3.A.1.10.4'
p9898
(lp9899
S'Q82VN5'
p9900
aS'Organic'
p9901
aS'Siderophores'
p9902
aS'Fe3+-hydroxamate'
p9903
aS'28163'
p9904
aS'Predicted\n'
p9905
asS'1.A.1.7.1'
p9906
(lp9907
S'P40310'
p9908
aS'Inorganic'
p9909
aS'Cations'
p9910
aS'K+'
p9911
aS'29103'
p9912
aS'Known\n'
p9913
asS'1.A.1.4.2'
p9914
(lp9915
S'Q9SCF5'
p9916
aS'Inorganic'
p9917
aS'Cations'
p9918
aS'K+'
p9919
aS'29103'
p9920
aS'Known\n'
p9921
asS'3.A.1.12.6'
p9922
(lp9923
S'Q9KKE3'
p9924
aS'Organic'
p9925
aS'Amino acids and derivatives'
p9926
aS'"Histidine, proline, proline betaine, glycine betaine"'
p9927
aS'"27570, 26271, 35280, 17750"'
p9928
aS'Predicted\n'
p9929
asS'1.A.46.1.1'
p9930
(lp9931
S'O76090'
p9932
aS'Inorganic'
p9933
aS'Anions'
p9934
aS'"NO3-, I-, Br-, Cl-"'
p9935
aS'"17632, 16382, 15858, 17996"'
p9936
aS'Known'
p9937
aS'Y\n'
p9938
asS'5.A.2.1.1'
p9939
(lp9940
S'P0A6M2'
p9941
aS'Inorganic'
p9942
aS'Electrons'
p9943
aS'Electrons'
p9944
aS'10545'
p9945
aS'Known\n'
p9946
asS'2.A.7.1.9'
p9947
(lp9948
S'P69210'
p9949
aS'Organic'
p9950
aS'Amines'
p9951
aS'Spermidine'
p9952
aS'16610'
p9953
aS'Known\n'
p9954
asS'2.A.2.2.2'
p9955
(lp9956
S'P43466'
p9957
aS'Organic'
p9958
aS'Sugars'
p9959
aS'Raffinose'
p9960
aS'16634'
p9961
aS'Known\n'
p9962
asS'1.A.1.2.8'
p9963
(lp9964
S'G86GJ0'
p9965
aS'Inorganic'
p9966
aS'Cations'
p9967
aS'K+'
p9968
aS'29103'
p9969
aS'Known\n'
p9970
asS'2.A.23.1.8'
p9971
(lp9972
S'P77529'
p9973
aS'Organic'
p9974
aS'Amino acids and derivatives'
p9975
aS'Cystine'
p9976
aS'17376'
p9977
aS'Known'
p9978
aS'Y\n'
p9979
asS'2.A.3.7.3'
p9980
(lp9981
S'C8U8G2'
p9982
aS'Organic'
p9983
aS'Amino acids and derivatives'
p9984
aS'Glutamate'
p9985
aS'29987'
p9986
aS'Predicted\n'
p9987
asS'2.A.3.7.1'
p9988
(lp9989
S'O30417'
p9990
aS'Organic'
p9991
aS'Amino acids and derivatives'
p9992
aS'"Glutamate, _-aminobutyrate"'
p9993
aS'"29987, 30566"'
p9994
aS'Known\n'
p9995
asS'2.A.39.3.4'
p9996
(lp9997
S'P94575'
p9998
aS'Organic'
p9999
aS'Nucleobases'
p10000
aS'Allantoin'
p10001
aS'15676'
p10002
aS'Known'
p10003
aS'Y\n'
p10004
asS'1.A.4.6.2'
p10005
(lp10006
S'Q7Z020'
p10007
aS'Inorganic'
p10008
aS'Cations'
p10009
aS'Cations'
p10010
aS'36916'
p10011
aS'Known\n'
p10012
asS'1.A.2.1.9'
p10013
(lp10014
S'Q14500'
p10015
aS'Inorganic'
p10016
aS'Cations'
p10017
aS'K+'
p10018
aS'29103'
p10019
aS'Known\n'
p10020
asS'2.A.104.1.1'
p10021
(lp10022
S'A8ANM6'
p10023
aS'Organic'
p10024
aS'Amino acids and derivatives'
p10025
aS'Alanine'
p10026
aS'16449'
p10027
aS'Known'
p10028
aS'Y\n'
p10029
asS'1.B.14.9.3'
p10030
(lp10031
S'Q7CGN6'
p10032
aS'Organic'
p10033
aS'Siderophore'
p10034
aS'Fe3+-ferrichrome/enterobactin'
p10035
aS'5019'
p10036
aS'Known'
p10037
aS'Y\n'
p10038
asS'2.A.23.1.4'
p10039
(lp10040
S'P54596'
p10041
aS'Organic'
p10042
aS'Amino acids and derivatives'
p10043
aS'"Cystine, selenocystine"'
p10044
aS'"17376, 28553"'
p10045
aS'Known'
p10046
aS'Y\n'
p10047
asS'1.A.1.2.18'
p10048
(lp10049
S'Q9H3M0'
p10050
aS'Inorganic'
p10051
aS'Cations'
p10052
aS'K+'
p10053
aS'29103'
p10054
aS'Known\n'
p10055
asS'1.A.1.2.19'
p10056
(lp10057
S'Q9UK17'
p10058
aS'Inorganic'
p10059
aS'Cations'
p10060
aS'K+'
p10061
aS'29103'
p10062
aS'Known\n'
p10063
asS'3.A.1.17.1'
p10064
(lp10065
S'Q47537'
p10066
aS'Organic'
p10067
aS'Amino acids and derivatives'
p10068
aS'Taurine'
p10069
aS'15891'
p10070
aS'Known\n'
p10071
asS'2.A.3.3.22'
p10072
(lp10073
S'Q8R706'
p10074
aS'Organic'
p10075
aS'Amino acids and derivatives'
p10076
aS'Amino acids'
p10077
aS'33709'
p10078
aS'Predicted\n'
p10079
asS'5.A.3.5.2'
p10080
(lp10081
S'P31076'
p10082
aS'Inorganic'
p10083
aS'Electrons'
p10084
aS'Electrons'
p10085
aS'10545'
p10086
aS'Known\n'
p10087
asS'1.A.1.2.10'
p10088
(lp10089
S'P16389'
p10090
aS'Inorganic'
p10091
aS'Cations'
p10092
aS'K+'
p10093
aS'29103'
p10094
aS'Known\n'
p10095
asS'1.A.1.2.11'
p10096
(lp10097
S'Q14721'
p10098
aS'Inorganic'
p10099
aS'Cations'
p10100
aS'K+'
p10101
aS'29103'
p10102
aS'Known\n'
p10103
asS'1.A.1.2.12'
p10104
(lp10105
S'Q09470'
p10106
aS'Inorganic'
p10107
aS'Cations'
p10108
aS'K+'
p10109
aS'29103'
p10110
aS'Known\n'
p10111
asS'1.A.1.2.13'
p10112
(lp10113
S'Q14003'
p10114
aS'Inorganic'
p10115
aS'Cations'
p10116
aS'K+'
p10117
aS'29103'
p10118
aS'Known\n'
p10119
asS'2.A.1.9.10'
p10120
(lp10121
S'A8N031'
p10122
aS'Inorganic'
p10123
aS'Anions'
p10124
aS'Phosphate'
p10125
aS'24838'
p10126
aS'Predicted\n'
p10127
asS'1.A.1.2.15'
p10128
(lp10129
S'Q9BQ31'
p10130
aS'Inorganic'
p10131
aS'Cations'
p10132
aS'K+'
p10133
aS'29103'
p10134
aS'Known\n'
p10135
asS'2.A.2.2.3'
p10136
(lp10137
S'Q9X761'
p10138
aS'Organic'
p10139
aS'Sugars'
p10140
aS'Galactose'
p10141
aS'28260'
p10142
aS'Predicted\n'
p10143
asS'1.A.1.2.17'
p10144
(lp10145
S'Q8R523'
p10146
aS'Inorganic'
p10147
aS'Cations'
p10148
aS'K+'
p10149
aS'29103'
p10150
aS'Known\n'
p10151
asS'2.A.1.1.14'
p10152
(lp10153
S'P15686'
p10154
aS'Organic'
p10155
aS'Sugars'
p10156
aS'Hexoses'
p10157
aS'18133'
p10158
aS'Known\n'
p10159
asS'1.A.4.1.10'
p10160
(lp10161
S'G5EE02'
p10162
aS'Inorganic'
p10163
aS'Cations'
p10164
aS'Ca2+'
p10165
aS'29108'
p10166
aS'Predicted\n'
p10167
asS'3.A.1.6.3'
p10168
(lp10169
S'P71746'
p10170
aS'Inorganic'
p10171
aS'Anions'
p10172
aS'Sulfate'
p10173
aS'16189'
p10174
aS'Predicted\n'
p10175
asS'2.A.10.1.2'
p10176
(lp10177
S'P0A712'
p10178
aS'Organic'
p10179
aS'Carboxylates'
p10180
aS'2-keto-3-deoxygluconate'
p10181
aS'17032'
p10182
aS'Known'
p10183
aS'Y\n'
p10184
asS'2.A.49.8.2'
p10185
(lp10186
S'M2XWR6'
p10187
aS'Inorganic'
p10188
aS'Anions'
p10189
aS'Cl-'
p10190
aS'17996'
p10191
aS'Predicted'
p10192
aS'Y\n'
p10193
asS'9.B.10.1.1'
p10194
(lp10195
S'P94400'
p10196
aS'Inorganic'
p10197
aS'Cations'
p10198
aS'Zn2+'
p10199
aS'29105'
p10200
aS'Predicted\n'
p10201
asS'2.A.49.2.1'
p10202
(lp10203
S'P35523'
p10204
aS'Inorganic'
p10205
aS'Anions'
p10206
aS'Cl-'
p10207
aS'17996'
p10208
aS'Known'
p10209
aS'Y\n'
p10210
asS'2.A.49.2.3'
p10211
(lp10212
S'P51792'
p10213
aS'Inorganic'
p10214
aS'Anions'
p10215
aS'"I-, Br-, Cl-"'
p10216
aS'"16382, 15858, 17996"'
p10217
aS'Known'
p10218
aS'Y\n'
p10219
asS'3.A.1.12.4'
p10220
(lp10221
S'O34992'
p10222
aS'Organic'
p10223
aS'"Amines, amino acids and derivatives"'
p10224
aS'"Choline, carnitine, glycine betaine, proline betaine, crotonobetaine, _-butyrobetaine, dimethylsulfonioacetate, dimethylsulfoniopropionate, ectoine, choline-O-sulfate"'
p10225
aS'"15354, 17126, 17750, 35280, 3926, 3246, 16471, 16457, 27592, 16822"'
p10226
aS'Known\n'
p10227
asS'2.A.49.2.6'
p10228
(lp10229
S'P35525'
p10230
aS'Inorganic'
p10231
aS'Anions'
p10232
aS'"Cl-, Br-, I-"'
p10233
aS'"17996, 15858, 16382"'
p10234
aS'Known'
p10235
aS'Y\n'
p10236
asS'3.A.1.11.5'
p10237
(lp10238
S'P96065'
p10239
aS'Organic'
p10240
aS'Amines'
p10241
aS'2-aminoethyl phosphonate'
p10242
aS'15573'
p10243
aS'Known\n'
p10244
asS'3.A.3.6.2'
p10245
(lp10246
S'P37617'
p10247
aS'Inorganic'
p10248
aS'Cations'
p10249
aS'"Zn2+, Cd2+, Co2+, Hg2+, Ni2+, Cu2+, Pb2+"'
p10250
aS'"29105, 48775, 48828, 16793, 49786, 29036, 49087"'
p10251
aS'Known\n'
p10252
asS'2.A.2.4.4'
p10253
(lp10254
S'Q8K4S3'
p10255
aS'Organic'
p10256
aS'Sugars'
p10257
aS'Glucose'
p10258
aS'17234'
p10259
aS'Known\n'
p10260
asS'3.A.3.6.6'
p10261
(lp10262
S'Q9M3H5'
p10263
aS'Inorganic'
p10264
aS'Cations'
p10265
aS'"Zn2+, Cu2+, Cd2+, Co2+, Ca2+"'
p10266
aS'"29105, 29036, 48775, 48828, 29108"'
p10267
aS'Known\n'
p10268
asS'3.A.10.2.3'
p10269
(lp10270
S'Q56ZN6'
p10271
aS'Inorganic'
p10272
aS'Cations'
p10273
aS'H+'
p10274
aS'24636'
p10275
aS'Known\n'
p10276
asS'2.A.2.4.5'
p10277
(lp10278
S'D1GC38'
p10279
aS'Organic'
p10280
aS'Sugars'
p10281
aS'Sucrose'
p10282
aS'17992'
p10283
aS'Known'
p10284
aS'Y\n'
p10285
as.